
./GPC/gpc:     file format elf64-x86-64


Disassembly of section .init:

0000000000002000 <_init>:
    2000:	f3 0f 1e fa          	endbr64
    2004:	48 83 ec 08          	sub    $0x8,%rsp
    2008:	48 8b 05 d1 ef 01 00 	mov    0x1efd1(%rip),%rax        # 20fe0 <__gmon_start__@Base>
    200f:	48 85 c0             	test   %rax,%rax
    2012:	74 02                	je     2016 <_init+0x16>
    2014:	ff d0                	call   *%rax
    2016:	48 83 c4 08          	add    $0x8,%rsp
    201a:	c3                   	ret

Disassembly of section .plt:

0000000000002020 <.plt>:
    2020:	ff 35 72 ee 01 00    	push   0x1ee72(%rip)        # 20e98 <_GLOBAL_OFFSET_TABLE_+0x8>
    2026:	ff 25 74 ee 01 00    	jmp    *0x1ee74(%rip)        # 20ea0 <_GLOBAL_OFFSET_TABLE_+0x10>
    202c:	0f 1f 40 00          	nopl   0x0(%rax)
    2030:	f3 0f 1e fa          	endbr64
    2034:	68 00 00 00 00       	push   $0x0
    2039:	e9 e2 ff ff ff       	jmp    2020 <_init+0x20>
    203e:	66 90                	xchg   %ax,%ax
    2040:	f3 0f 1e fa          	endbr64
    2044:	68 01 00 00 00       	push   $0x1
    2049:	e9 d2 ff ff ff       	jmp    2020 <_init+0x20>
    204e:	66 90                	xchg   %ax,%ax
    2050:	f3 0f 1e fa          	endbr64
    2054:	68 02 00 00 00       	push   $0x2
    2059:	e9 c2 ff ff ff       	jmp    2020 <_init+0x20>
    205e:	66 90                	xchg   %ax,%ax
    2060:	f3 0f 1e fa          	endbr64
    2064:	68 03 00 00 00       	push   $0x3
    2069:	e9 b2 ff ff ff       	jmp    2020 <_init+0x20>
    206e:	66 90                	xchg   %ax,%ax
    2070:	f3 0f 1e fa          	endbr64
    2074:	68 04 00 00 00       	push   $0x4
    2079:	e9 a2 ff ff ff       	jmp    2020 <_init+0x20>
    207e:	66 90                	xchg   %ax,%ax
    2080:	f3 0f 1e fa          	endbr64
    2084:	68 05 00 00 00       	push   $0x5
    2089:	e9 92 ff ff ff       	jmp    2020 <_init+0x20>
    208e:	66 90                	xchg   %ax,%ax
    2090:	f3 0f 1e fa          	endbr64
    2094:	68 06 00 00 00       	push   $0x6
    2099:	e9 82 ff ff ff       	jmp    2020 <_init+0x20>
    209e:	66 90                	xchg   %ax,%ax
    20a0:	f3 0f 1e fa          	endbr64
    20a4:	68 07 00 00 00       	push   $0x7
    20a9:	e9 72 ff ff ff       	jmp    2020 <_init+0x20>
    20ae:	66 90                	xchg   %ax,%ax
    20b0:	f3 0f 1e fa          	endbr64
    20b4:	68 08 00 00 00       	push   $0x8
    20b9:	e9 62 ff ff ff       	jmp    2020 <_init+0x20>
    20be:	66 90                	xchg   %ax,%ax
    20c0:	f3 0f 1e fa          	endbr64
    20c4:	68 09 00 00 00       	push   $0x9
    20c9:	e9 52 ff ff ff       	jmp    2020 <_init+0x20>
    20ce:	66 90                	xchg   %ax,%ax
    20d0:	f3 0f 1e fa          	endbr64
    20d4:	68 0a 00 00 00       	push   $0xa
    20d9:	e9 42 ff ff ff       	jmp    2020 <_init+0x20>
    20de:	66 90                	xchg   %ax,%ax
    20e0:	f3 0f 1e fa          	endbr64
    20e4:	68 0b 00 00 00       	push   $0xb
    20e9:	e9 32 ff ff ff       	jmp    2020 <_init+0x20>
    20ee:	66 90                	xchg   %ax,%ax
    20f0:	f3 0f 1e fa          	endbr64
    20f4:	68 0c 00 00 00       	push   $0xc
    20f9:	e9 22 ff ff ff       	jmp    2020 <_init+0x20>
    20fe:	66 90                	xchg   %ax,%ax
    2100:	f3 0f 1e fa          	endbr64
    2104:	68 0d 00 00 00       	push   $0xd
    2109:	e9 12 ff ff ff       	jmp    2020 <_init+0x20>
    210e:	66 90                	xchg   %ax,%ax
    2110:	f3 0f 1e fa          	endbr64
    2114:	68 0e 00 00 00       	push   $0xe
    2119:	e9 02 ff ff ff       	jmp    2020 <_init+0x20>
    211e:	66 90                	xchg   %ax,%ax
    2120:	f3 0f 1e fa          	endbr64
    2124:	68 0f 00 00 00       	push   $0xf
    2129:	e9 f2 fe ff ff       	jmp    2020 <_init+0x20>
    212e:	66 90                	xchg   %ax,%ax
    2130:	f3 0f 1e fa          	endbr64
    2134:	68 10 00 00 00       	push   $0x10
    2139:	e9 e2 fe ff ff       	jmp    2020 <_init+0x20>
    213e:	66 90                	xchg   %ax,%ax
    2140:	f3 0f 1e fa          	endbr64
    2144:	68 11 00 00 00       	push   $0x11
    2149:	e9 d2 fe ff ff       	jmp    2020 <_init+0x20>
    214e:	66 90                	xchg   %ax,%ax
    2150:	f3 0f 1e fa          	endbr64
    2154:	68 12 00 00 00       	push   $0x12
    2159:	e9 c2 fe ff ff       	jmp    2020 <_init+0x20>
    215e:	66 90                	xchg   %ax,%ax
    2160:	f3 0f 1e fa          	endbr64
    2164:	68 13 00 00 00       	push   $0x13
    2169:	e9 b2 fe ff ff       	jmp    2020 <_init+0x20>
    216e:	66 90                	xchg   %ax,%ax
    2170:	f3 0f 1e fa          	endbr64
    2174:	68 14 00 00 00       	push   $0x14
    2179:	e9 a2 fe ff ff       	jmp    2020 <_init+0x20>
    217e:	66 90                	xchg   %ax,%ax
    2180:	f3 0f 1e fa          	endbr64
    2184:	68 15 00 00 00       	push   $0x15
    2189:	e9 92 fe ff ff       	jmp    2020 <_init+0x20>
    218e:	66 90                	xchg   %ax,%ax
    2190:	f3 0f 1e fa          	endbr64
    2194:	68 16 00 00 00       	push   $0x16
    2199:	e9 82 fe ff ff       	jmp    2020 <_init+0x20>
    219e:	66 90                	xchg   %ax,%ax
    21a0:	f3 0f 1e fa          	endbr64
    21a4:	68 17 00 00 00       	push   $0x17
    21a9:	e9 72 fe ff ff       	jmp    2020 <_init+0x20>
    21ae:	66 90                	xchg   %ax,%ax
    21b0:	f3 0f 1e fa          	endbr64
    21b4:	68 18 00 00 00       	push   $0x18
    21b9:	e9 62 fe ff ff       	jmp    2020 <_init+0x20>
    21be:	66 90                	xchg   %ax,%ax
    21c0:	f3 0f 1e fa          	endbr64
    21c4:	68 19 00 00 00       	push   $0x19
    21c9:	e9 52 fe ff ff       	jmp    2020 <_init+0x20>
    21ce:	66 90                	xchg   %ax,%ax
    21d0:	f3 0f 1e fa          	endbr64
    21d4:	68 1a 00 00 00       	push   $0x1a
    21d9:	e9 42 fe ff ff       	jmp    2020 <_init+0x20>
    21de:	66 90                	xchg   %ax,%ax
    21e0:	f3 0f 1e fa          	endbr64
    21e4:	68 1b 00 00 00       	push   $0x1b
    21e9:	e9 32 fe ff ff       	jmp    2020 <_init+0x20>
    21ee:	66 90                	xchg   %ax,%ax
    21f0:	f3 0f 1e fa          	endbr64
    21f4:	68 1c 00 00 00       	push   $0x1c
    21f9:	e9 22 fe ff ff       	jmp    2020 <_init+0x20>
    21fe:	66 90                	xchg   %ax,%ax
    2200:	f3 0f 1e fa          	endbr64
    2204:	68 1d 00 00 00       	push   $0x1d
    2209:	e9 12 fe ff ff       	jmp    2020 <_init+0x20>
    220e:	66 90                	xchg   %ax,%ax
    2210:	f3 0f 1e fa          	endbr64
    2214:	68 1e 00 00 00       	push   $0x1e
    2219:	e9 02 fe ff ff       	jmp    2020 <_init+0x20>
    221e:	66 90                	xchg   %ax,%ax
    2220:	f3 0f 1e fa          	endbr64
    2224:	68 1f 00 00 00       	push   $0x1f
    2229:	e9 f2 fd ff ff       	jmp    2020 <_init+0x20>
    222e:	66 90                	xchg   %ax,%ax
    2230:	f3 0f 1e fa          	endbr64
    2234:	68 20 00 00 00       	push   $0x20
    2239:	e9 e2 fd ff ff       	jmp    2020 <_init+0x20>
    223e:	66 90                	xchg   %ax,%ax
    2240:	f3 0f 1e fa          	endbr64
    2244:	68 21 00 00 00       	push   $0x21
    2249:	e9 d2 fd ff ff       	jmp    2020 <_init+0x20>
    224e:	66 90                	xchg   %ax,%ax
    2250:	f3 0f 1e fa          	endbr64
    2254:	68 22 00 00 00       	push   $0x22
    2259:	e9 c2 fd ff ff       	jmp    2020 <_init+0x20>
    225e:	66 90                	xchg   %ax,%ax
    2260:	f3 0f 1e fa          	endbr64
    2264:	68 23 00 00 00       	push   $0x23
    2269:	e9 b2 fd ff ff       	jmp    2020 <_init+0x20>
    226e:	66 90                	xchg   %ax,%ax
    2270:	f3 0f 1e fa          	endbr64
    2274:	68 24 00 00 00       	push   $0x24
    2279:	e9 a2 fd ff ff       	jmp    2020 <_init+0x20>
    227e:	66 90                	xchg   %ax,%ax

Disassembly of section .plt.got:

0000000000002280 <__cxa_finalize@plt>:
    2280:	f3 0f 1e fa          	endbr64
    2284:	ff 25 66 ed 01 00    	jmp    *0x1ed66(%rip)        # 20ff0 <__cxa_finalize@GLIBC_2.2.5>
    228a:	66 0f 1f 44 00 00    	nopw   0x0(%rax,%rax,1)

Disassembly of section .plt.sec:

0000000000002290 <free@plt>:
    2290:	f3 0f 1e fa          	endbr64
    2294:	ff 25 0e ec 01 00    	jmp    *0x1ec0e(%rip)        # 20ea8 <free@GLIBC_2.2.5>
    229a:	66 0f 1f 44 00 00    	nopw   0x0(%rax,%rax,1)

00000000000022a0 <__errno_location@plt>:
    22a0:	f3 0f 1e fa          	endbr64
    22a4:	ff 25 06 ec 01 00    	jmp    *0x1ec06(%rip)        # 20eb0 <__errno_location@GLIBC_2.2.5>
    22aa:	66 0f 1f 44 00 00    	nopw   0x0(%rax,%rax,1)

00000000000022b0 <strncpy@plt>:
    22b0:	f3 0f 1e fa          	endbr64
    22b4:	ff 25 fe eb 01 00    	jmp    *0x1ebfe(%rip)        # 20eb8 <strncpy@GLIBC_2.2.5>
    22ba:	66 0f 1f 44 00 00    	nopw   0x0(%rax,%rax,1)

00000000000022c0 <strcpy@plt>:
    22c0:	f3 0f 1e fa          	endbr64
    22c4:	ff 25 f6 eb 01 00    	jmp    *0x1ebf6(%rip)        # 20ec0 <strcpy@GLIBC_2.2.5>
    22ca:	66 0f 1f 44 00 00    	nopw   0x0(%rax,%rax,1)

00000000000022d0 <ferror@plt>:
    22d0:	f3 0f 1e fa          	endbr64
    22d4:	ff 25 ee eb 01 00    	jmp    *0x1ebee(%rip)        # 20ec8 <ferror@GLIBC_2.2.5>
    22da:	66 0f 1f 44 00 00    	nopw   0x0(%rax,%rax,1)

00000000000022e0 <isatty@plt>:
    22e0:	f3 0f 1e fa          	endbr64
    22e4:	ff 25 e6 eb 01 00    	jmp    *0x1ebe6(%rip)        # 20ed0 <isatty@GLIBC_2.2.5>
    22ea:	66 0f 1f 44 00 00    	nopw   0x0(%rax,%rax,1)

00000000000022f0 <fread@plt>:
    22f0:	f3 0f 1e fa          	endbr64
    22f4:	ff 25 de eb 01 00    	jmp    *0x1ebde(%rip)        # 20ed8 <fread@GLIBC_2.2.5>
    22fa:	66 0f 1f 44 00 00    	nopw   0x0(%rax,%rax,1)

0000000000002300 <atof@plt>:
    2300:	f3 0f 1e fa          	endbr64
    2304:	ff 25 d6 eb 01 00    	jmp    *0x1ebd6(%rip)        # 20ee0 <atof@GLIBC_2.2.5>
    230a:	66 0f 1f 44 00 00    	nopw   0x0(%rax,%rax,1)

0000000000002310 <fclose@plt>:
    2310:	f3 0f 1e fa          	endbr64
    2314:	ff 25 ce eb 01 00    	jmp    *0x1ebce(%rip)        # 20ee8 <fclose@GLIBC_2.2.5>
    231a:	66 0f 1f 44 00 00    	nopw   0x0(%rax,%rax,1)

0000000000002320 <strlen@plt>:
    2320:	f3 0f 1e fa          	endbr64
    2324:	ff 25 c6 eb 01 00    	jmp    *0x1ebc6(%rip)        # 20ef0 <strlen@GLIBC_2.2.5>
    232a:	66 0f 1f 44 00 00    	nopw   0x0(%rax,%rax,1)

0000000000002330 <__stack_chk_fail@plt>:
    2330:	f3 0f 1e fa          	endbr64
    2334:	ff 25 be eb 01 00    	jmp    *0x1ebbe(%rip)        # 20ef8 <__stack_chk_fail@GLIBC_2.4>
    233a:	66 0f 1f 44 00 00    	nopw   0x0(%rax,%rax,1)

0000000000002340 <snprintf@plt>:
    2340:	f3 0f 1e fa          	endbr64
    2344:	ff 25 b6 eb 01 00    	jmp    *0x1ebb6(%rip)        # 20f00 <snprintf@GLIBC_2.2.5>
    234a:	66 0f 1f 44 00 00    	nopw   0x0(%rax,%rax,1)

0000000000002350 <__assert_fail@plt>:
    2350:	f3 0f 1e fa          	endbr64
    2354:	ff 25 ae eb 01 00    	jmp    *0x1ebae(%rip)        # 20f08 <__assert_fail@GLIBC_2.2.5>
    235a:	66 0f 1f 44 00 00    	nopw   0x0(%rax,%rax,1)

0000000000002360 <fputs@plt>:
    2360:	f3 0f 1e fa          	endbr64
    2364:	ff 25 a6 eb 01 00    	jmp    *0x1eba6(%rip)        # 20f10 <fputs@GLIBC_2.2.5>
    236a:	66 0f 1f 44 00 00    	nopw   0x0(%rax,%rax,1)

0000000000002370 <memset@plt>:
    2370:	f3 0f 1e fa          	endbr64
    2374:	ff 25 9e eb 01 00    	jmp    *0x1eb9e(%rip)        # 20f18 <memset@GLIBC_2.2.5>
    237a:	66 0f 1f 44 00 00    	nopw   0x0(%rax,%rax,1)

0000000000002380 <strncat@plt>:
    2380:	f3 0f 1e fa          	endbr64
    2384:	ff 25 96 eb 01 00    	jmp    *0x1eb96(%rip)        # 20f20 <strncat@GLIBC_2.2.5>
    238a:	66 0f 1f 44 00 00    	nopw   0x0(%rax,%rax,1)

0000000000002390 <fputc@plt>:
    2390:	f3 0f 1e fa          	endbr64
    2394:	ff 25 8e eb 01 00    	jmp    *0x1eb8e(%rip)        # 20f28 <fputc@GLIBC_2.2.5>
    239a:	66 0f 1f 44 00 00    	nopw   0x0(%rax,%rax,1)

00000000000023a0 <strcspn@plt>:
    23a0:	f3 0f 1e fa          	endbr64
    23a4:	ff 25 86 eb 01 00    	jmp    *0x1eb86(%rip)        # 20f30 <strcspn@GLIBC_2.2.5>
    23aa:	66 0f 1f 44 00 00    	nopw   0x0(%rax,%rax,1)

00000000000023b0 <fgets@plt>:
    23b0:	f3 0f 1e fa          	endbr64
    23b4:	ff 25 7e eb 01 00    	jmp    *0x1eb7e(%rip)        # 20f38 <fgets@GLIBC_2.2.5>
    23ba:	66 0f 1f 44 00 00    	nopw   0x0(%rax,%rax,1)

00000000000023c0 <strcmp@plt>:
    23c0:	f3 0f 1e fa          	endbr64
    23c4:	ff 25 76 eb 01 00    	jmp    *0x1eb76(%rip)        # 20f40 <strcmp@GLIBC_2.2.5>
    23ca:	66 0f 1f 44 00 00    	nopw   0x0(%rax,%rax,1)

00000000000023d0 <fprintf@plt>:
    23d0:	f3 0f 1e fa          	endbr64
    23d4:	ff 25 6e eb 01 00    	jmp    *0x1eb6e(%rip)        # 20f48 <fprintf@GLIBC_2.2.5>
    23da:	66 0f 1f 44 00 00    	nopw   0x0(%rax,%rax,1)

00000000000023e0 <clearerr@plt>:
    23e0:	f3 0f 1e fa          	endbr64
    23e4:	ff 25 66 eb 01 00    	jmp    *0x1eb66(%rip)        # 20f50 <clearerr@GLIBC_2.2.5>
    23ea:	66 0f 1f 44 00 00    	nopw   0x0(%rax,%rax,1)

00000000000023f0 <memcpy@plt>:
    23f0:	f3 0f 1e fa          	endbr64
    23f4:	ff 25 5e eb 01 00    	jmp    *0x1eb5e(%rip)        # 20f58 <memcpy@GLIBC_2.14>
    23fa:	66 0f 1f 44 00 00    	nopw   0x0(%rax,%rax,1)

0000000000002400 <fileno@plt>:
    2400:	f3 0f 1e fa          	endbr64
    2404:	ff 25 56 eb 01 00    	jmp    *0x1eb56(%rip)        # 20f60 <fileno@GLIBC_2.2.5>
    240a:	66 0f 1f 44 00 00    	nopw   0x0(%rax,%rax,1)

0000000000002410 <malloc@plt>:
    2410:	f3 0f 1e fa          	endbr64
    2414:	ff 25 4e eb 01 00    	jmp    *0x1eb4e(%rip)        # 20f68 <malloc@GLIBC_2.2.5>
    241a:	66 0f 1f 44 00 00    	nopw   0x0(%rax,%rax,1)

0000000000002420 <__isoc99_sscanf@plt>:
    2420:	f3 0f 1e fa          	endbr64
    2424:	ff 25 46 eb 01 00    	jmp    *0x1eb46(%rip)        # 20f70 <__isoc99_sscanf@GLIBC_2.7>
    242a:	66 0f 1f 44 00 00    	nopw   0x0(%rax,%rax,1)

0000000000002430 <realloc@plt>:
    2430:	f3 0f 1e fa          	endbr64
    2434:	ff 25 3e eb 01 00    	jmp    *0x1eb3e(%rip)        # 20f78 <realloc@GLIBC_2.2.5>
    243a:	66 0f 1f 44 00 00    	nopw   0x0(%rax,%rax,1)

0000000000002440 <fopen@plt>:
    2440:	f3 0f 1e fa          	endbr64
    2444:	ff 25 36 eb 01 00    	jmp    *0x1eb36(%rip)        # 20f80 <fopen@GLIBC_2.2.5>
    244a:	66 0f 1f 44 00 00    	nopw   0x0(%rax,%rax,1)

0000000000002450 <atoi@plt>:
    2450:	f3 0f 1e fa          	endbr64
    2454:	ff 25 2e eb 01 00    	jmp    *0x1eb2e(%rip)        # 20f88 <atoi@GLIBC_2.2.5>
    245a:	66 0f 1f 44 00 00    	nopw   0x0(%rax,%rax,1)

0000000000002460 <strcat@plt>:
    2460:	f3 0f 1e fa          	endbr64
    2464:	ff 25 26 eb 01 00    	jmp    *0x1eb26(%rip)        # 20f90 <strcat@GLIBC_2.2.5>
    246a:	66 0f 1f 44 00 00    	nopw   0x0(%rax,%rax,1)

0000000000002470 <sprintf@plt>:
    2470:	f3 0f 1e fa          	endbr64
    2474:	ff 25 1e eb 01 00    	jmp    *0x1eb1e(%rip)        # 20f98 <sprintf@GLIBC_2.2.5>
    247a:	66 0f 1f 44 00 00    	nopw   0x0(%rax,%rax,1)

0000000000002480 <exit@plt>:
    2480:	f3 0f 1e fa          	endbr64
    2484:	ff 25 16 eb 01 00    	jmp    *0x1eb16(%rip)        # 20fa0 <exit@GLIBC_2.2.5>
    248a:	66 0f 1f 44 00 00    	nopw   0x0(%rax,%rax,1)

0000000000002490 <fwrite@plt>:
    2490:	f3 0f 1e fa          	endbr64
    2494:	ff 25 0e eb 01 00    	jmp    *0x1eb0e(%rip)        # 20fa8 <fwrite@GLIBC_2.2.5>
    249a:	66 0f 1f 44 00 00    	nopw   0x0(%rax,%rax,1)

00000000000024a0 <strdup@plt>:
    24a0:	f3 0f 1e fa          	endbr64
    24a4:	ff 25 06 eb 01 00    	jmp    *0x1eb06(%rip)        # 20fb0 <strdup@GLIBC_2.2.5>
    24aa:	66 0f 1f 44 00 00    	nopw   0x0(%rax,%rax,1)

00000000000024b0 <getc@plt>:
    24b0:	f3 0f 1e fa          	endbr64
    24b4:	ff 25 fe ea 01 00    	jmp    *0x1eafe(%rip)        # 20fb8 <getc@GLIBC_2.2.5>
    24ba:	66 0f 1f 44 00 00    	nopw   0x0(%rax,%rax,1)

00000000000024c0 <strstr@plt>:
    24c0:	f3 0f 1e fa          	endbr64
    24c4:	ff 25 f6 ea 01 00    	jmp    *0x1eaf6(%rip)        # 20fc0 <strstr@GLIBC_2.2.5>
    24ca:	66 0f 1f 44 00 00    	nopw   0x0(%rax,%rax,1)

00000000000024d0 <__ctype_b_loc@plt>:
    24d0:	f3 0f 1e fa          	endbr64
    24d4:	ff 25 ee ea 01 00    	jmp    *0x1eaee(%rip)        # 20fc8 <__ctype_b_loc@GLIBC_2.3>
    24da:	66 0f 1f 44 00 00    	nopw   0x0(%rax,%rax,1)

Disassembly of section .text:

00000000000024e0 <_start>:
    24e0:	f3 0f 1e fa          	endbr64
    24e4:	31 ed                	xor    %ebp,%ebp
    24e6:	49 89 d1             	mov    %rdx,%r9
    24e9:	5e                   	pop    %rsi
    24ea:	48 89 e2             	mov    %rsp,%rdx
    24ed:	48 83 e4 f0          	and    $0xfffffffffffffff0,%rsp
    24f1:	50                   	push   %rax
    24f2:	54                   	push   %rsp
    24f3:	45 31 c0             	xor    %r8d,%r8d
    24f6:	31 c9                	xor    %ecx,%ecx
    24f8:	48 8d 3d ca 00 00 00 	lea    0xca(%rip),%rdi        # 25c9 <main>
    24ff:	ff 15 cb ea 01 00    	call   *0x1eacb(%rip)        # 20fd0 <__libc_start_main@GLIBC_2.34>
    2505:	f4                   	hlt
    2506:	66 2e 0f 1f 84 00 00 	cs nopw 0x0(%rax,%rax,1)
    250d:	00 00 00

0000000000002510 <deregister_tm_clones>:
    2510:	48 8d 3d 21 eb 01 00 	lea    0x1eb21(%rip),%rdi        # 21038 <__TMC_END__>
    2517:	48 8d 05 1a eb 01 00 	lea    0x1eb1a(%rip),%rax        # 21038 <__TMC_END__>
    251e:	48 39 f8             	cmp    %rdi,%rax
    2521:	74 15                	je     2538 <deregister_tm_clones+0x28>
    2523:	48 8b 05 ae ea 01 00 	mov    0x1eaae(%rip),%rax        # 20fd8 <_ITM_deregisterTMCloneTable@Base>
    252a:	48 85 c0             	test   %rax,%rax
    252d:	74 09                	je     2538 <deregister_tm_clones+0x28>
    252f:	ff e0                	jmp    *%rax
    2531:	0f 1f 80 00 00 00 00 	nopl   0x0(%rax)
    2538:	c3                   	ret
    2539:	0f 1f 80 00 00 00 00 	nopl   0x0(%rax)

0000000000002540 <register_tm_clones>:
    2540:	48 8d 3d f1 ea 01 00 	lea    0x1eaf1(%rip),%rdi        # 21038 <__TMC_END__>
    2547:	48 8d 35 ea ea 01 00 	lea    0x1eaea(%rip),%rsi        # 21038 <__TMC_END__>
    254e:	48 29 fe             	sub    %rdi,%rsi
    2551:	48 89 f0             	mov    %rsi,%rax
    2554:	48 c1 ee 3f          	shr    $0x3f,%rsi
    2558:	48 c1 f8 03          	sar    $0x3,%rax
    255c:	48 01 c6             	add    %rax,%rsi
    255f:	48 d1 fe             	sar    $1,%rsi
    2562:	74 14                	je     2578 <register_tm_clones+0x38>
    2564:	48 8b 05 7d ea 01 00 	mov    0x1ea7d(%rip),%rax        # 20fe8 <_ITM_registerTMCloneTable@Base>
    256b:	48 85 c0             	test   %rax,%rax
    256e:	74 08                	je     2578 <register_tm_clones+0x38>
    2570:	ff e0                	jmp    *%rax
    2572:	66 0f 1f 44 00 00    	nopw   0x0(%rax,%rax,1)
    2578:	c3                   	ret
    2579:	0f 1f 80 00 00 00 00 	nopl   0x0(%rax)

0000000000002580 <__do_global_dtors_aux>:
    2580:	f3 0f 1e fa          	endbr64
    2584:	80 3d dd ea 01 00 00 	cmpb   $0x0,0x1eadd(%rip)        # 21068 <completed.0>
    258b:	75 2b                	jne    25b8 <__do_global_dtors_aux+0x38>
    258d:	55                   	push   %rbp
    258e:	48 83 3d 5a ea 01 00 	cmpq   $0x0,0x1ea5a(%rip)        # 20ff0 <__cxa_finalize@GLIBC_2.2.5>
    2595:	00
    2596:	48 89 e5             	mov    %rsp,%rbp
    2599:	74 0c                	je     25a7 <__do_global_dtors_aux+0x27>
    259b:	48 8b 3d 66 ea 01 00 	mov    0x1ea66(%rip),%rdi        # 21008 <__dso_handle>
    25a2:	e8 d9 fc ff ff       	call   2280 <__cxa_finalize@plt>
    25a7:	e8 64 ff ff ff       	call   2510 <deregister_tm_clones>
    25ac:	c6 05 b5 ea 01 00 01 	movb   $0x1,0x1eab5(%rip)        # 21068 <completed.0>
    25b3:	5d                   	pop    %rbp
    25b4:	c3                   	ret
    25b5:	0f 1f 00             	nopl   (%rax)
    25b8:	c3                   	ret
    25b9:	0f 1f 80 00 00 00 00 	nopl   0x0(%rax)

00000000000025c0 <frame_dummy>:
    25c0:	f3 0f 1e fa          	endbr64
    25c4:	e9 77 ff ff ff       	jmp    2540 <register_tm_clones>

00000000000025c9 <main>:
    25c9:	f3 0f 1e fa          	endbr64
    25cd:	55                   	push   %rbp
    25ce:	48 89 e5             	mov    %rsp,%rbp
    25d1:	48 83 ec 40          	sub    $0x40,%rsp
    25d5:	89 7d cc             	mov    %edi,-0x34(%rbp)
    25d8:	48 89 75 c0          	mov    %rsi,-0x40(%rbp)
    25dc:	c7 45 d0 03 00 00 00 	movl   $0x3,-0x30(%rbp)
    25e3:	8b 45 cc             	mov    -0x34(%rbp),%eax
    25e6:	3b 45 d0             	cmp    -0x30(%rbp),%eax
    25e9:	7d 2d                	jge    2618 <main+0x4f>
    25eb:	48 8b 05 6e ea 01 00 	mov    0x1ea6e(%rip),%rax        # 21060 <stderr@GLIBC_2.2.5>
    25f2:	48 89 c1             	mov    %rax,%rcx
    25f5:	ba 3f 00 00 00       	mov    $0x3f,%edx
    25fa:	be 01 00 00 00       	mov    $0x1,%esi
    25ff:	48 8d 05 02 4a 01 00 	lea    0x14a02(%rip),%rax        # 17008 <_IO_stdin_used+0x8>
    2606:	48 89 c7             	mov    %rax,%rdi
    2609:	e8 82 fe ff ff       	call   2490 <fwrite@plt>
    260e:	bf 01 00 00 00       	mov    $0x1,%edi
    2613:	e8 68 fe ff ff       	call   2480 <exit@plt>
    2618:	8b 45 cc             	mov    -0x34(%rbp),%eax
    261b:	2b 45 d0             	sub    -0x30(%rbp),%eax
    261e:	89 45 d4             	mov    %eax,-0x2c(%rbp)
    2621:	83 7d d4 00          	cmpl   $0x0,-0x2c(%rbp)
    2625:	7e 21                	jle    2648 <main+0x7f>
    2627:	8b 45 d0             	mov    -0x30(%rbp),%eax
    262a:	48 98                	cltq
    262c:	48 8d 14 c5 00 00 00 	lea    0x0(,%rax,8),%rdx
    2633:	00
    2634:	48 8b 45 c0          	mov    -0x40(%rbp),%rax
    2638:	48 01 c2             	add    %rax,%rdx
    263b:	8b 45 d4             	mov    -0x2c(%rbp),%eax
    263e:	89 c6                	mov    %eax,%esi
    2640:	48 89 d7             	mov    %rdx,%rdi
    2643:	e8 6d 01 00 00       	call   27b5 <set_flags>
    2648:	48 8d 05 f9 49 01 00 	lea    0x149f9(%rip),%rax        # 17048 <_IO_stdin_used+0x48>
    264f:	48 89 c7             	mov    %rax,%rdi
    2652:	e8 d4 52 00 00       	call   792b <ParsePascalOnly>
    2657:	48 89 45 e0          	mov    %rax,-0x20(%rbp)
    265b:	48 8b 45 c0          	mov    -0x40(%rbp),%rax
    265f:	48 83 c0 08          	add    $0x8,%rax
    2663:	48 8b 00             	mov    (%rax),%rax
    2666:	48 89 c7             	mov    %rax,%rdi
    2669:	e8 bd 52 00 00       	call   792b <ParsePascalOnly>
    266e:	48 89 45 e8          	mov    %rax,-0x18(%rbp)
    2672:	48 83 7d e0 00       	cmpq   $0x0,-0x20(%rbp)
    2677:	0f 84 fb 00 00 00    	je     2778 <main+0x1af>
    267d:	48 83 7d e8 00       	cmpq   $0x0,-0x18(%rbp)
    2682:	0f 84 f0 00 00 00    	je     2778 <main+0x1af>
    2688:	48 8b 45 e0          	mov    -0x20(%rbp),%rax
    268c:	48 8b 40 28          	mov    0x28(%rax),%rax
    2690:	48 89 45 f0          	mov    %rax,-0x10(%rbp)
    2694:	48 8b 45 e8          	mov    -0x18(%rbp),%rax
    2698:	48 8b 40 28          	mov    0x28(%rax),%rax
    269c:	48 89 45 f8          	mov    %rax,-0x8(%rbp)
    26a0:	48 83 7d f8 00       	cmpq   $0x0,-0x8(%rbp)
    26a5:	75 0e                	jne    26b5 <main+0xec>
    26a7:	48 8b 45 e8          	mov    -0x18(%rbp),%rax
    26ab:	48 8b 55 f0          	mov    -0x10(%rbp),%rdx
    26af:	48 89 50 28          	mov    %rdx,0x28(%rax)
    26b3:	eb 2f                	jmp    26e4 <main+0x11b>
    26b5:	48 8b 45 f8          	mov    -0x8(%rbp),%rax
    26b9:	48 89 45 d8          	mov    %rax,-0x28(%rbp)
    26bd:	eb 0c                	jmp    26cb <main+0x102>
    26bf:	48 8b 45 d8          	mov    -0x28(%rbp),%rax
    26c3:	48 8b 40 10          	mov    0x10(%rax),%rax
    26c7:	48 89 45 d8          	mov    %rax,-0x28(%rbp)
    26cb:	48 8b 45 d8          	mov    -0x28(%rbp),%rax
    26cf:	48 8b 40 10          	mov    0x10(%rax),%rax
    26d3:	48 85 c0             	test   %rax,%rax
    26d6:	75 e7                	jne    26bf <main+0xf6>
    26d8:	48 8b 45 d8          	mov    -0x28(%rbp),%rax
    26dc:	48 8b 55 f0          	mov    -0x10(%rbp),%rdx
    26e0:	48 89 50 10          	mov    %rdx,0x10(%rax)
    26e4:	48 8b 45 e0          	mov    -0x20(%rbp),%rax
    26e8:	48 c7 40 28 00 00 00 	movq   $0x0,0x28(%rax)
    26ef:	00
    26f0:	48 8b 45 e8          	mov    -0x18(%rbp),%rax
    26f4:	48 89 c7             	mov    %rax,%rdi
    26f7:	e8 e5 77 00 00       	call   9ee1 <start_semcheck>
    26fc:	85 c0                	test   %eax,%eax
    26fe:	75 4e                	jne    274e <main+0x185>
    2700:	48 8b 45 c0          	mov    -0x40(%rbp),%rax
    2704:	48 83 c0 10          	add    $0x10,%rax
    2708:	48 8b 10             	mov    (%rax),%rdx
    270b:	48 8b 05 4e e9 01 00 	mov    0x1e94e(%rip),%rax        # 21060 <stderr@GLIBC_2.2.5>
    2712:	48 8d 0d 3c 49 01 00 	lea    0x1493c(%rip),%rcx        # 17055 <_IO_stdin_used+0x55>
    2719:	48 89 ce             	mov    %rcx,%rsi
    271c:	48 89 c7             	mov    %rax,%rdi
    271f:	b8 00 00 00 00       	mov    $0x0,%eax
    2724:	e8 a7 fc ff ff       	call   23d0 <fprintf@plt>
    2729:	48 8b 45 c0          	mov    -0x40(%rbp),%rax
    272d:	48 83 c0 10          	add    $0x10,%rax
    2731:	48 8b 10             	mov    (%rax),%rdx
    2734:	48 8b 45 c0          	mov    -0x40(%rbp),%rax
    2738:	48 83 c0 08          	add    $0x8,%rax
    273c:	48 8b 08             	mov    (%rax),%rcx
    273f:	48 8b 45 e8          	mov    -0x18(%rbp),%rax
    2743:	48 89 ce             	mov    %rcx,%rsi
    2746:	48 89 c7             	mov    %rax,%rdi
    2749:	e8 83 c5 00 00       	call   ecd1 <codegen>
    274e:	48 8b 45 e0          	mov    -0x20(%rbp),%rax
    2752:	48 89 c7             	mov    %rax,%rdi
    2755:	e8 db 68 00 00       	call   9035 <destroy_tree>
    275a:	48 8b 45 e8          	mov    -0x18(%rbp),%rax
    275e:	48 89 c7             	mov    %rax,%rdi
    2761:	e8 cf 68 00 00       	call   9035 <destroy_tree>
    2766:	48 c7 45 e0 00 00 00 	movq   $0x0,-0x20(%rbp)
    276d:	00
    276e:	48 c7 45 e8 00 00 00 	movq   $0x0,-0x18(%rbp)
    2775:	00
    2776:	eb 36                	jmp    27ae <main+0x1e5>
    2778:	48 83 7d e0 00       	cmpq   $0x0,-0x20(%rbp)
    277d:	74 14                	je     2793 <main+0x1ca>
    277f:	48 8b 45 e0          	mov    -0x20(%rbp),%rax
    2783:	48 89 c7             	mov    %rax,%rdi
    2786:	e8 aa 68 00 00       	call   9035 <destroy_tree>
    278b:	48 c7 45 e0 00 00 00 	movq   $0x0,-0x20(%rbp)
    2792:	00
    2793:	48 83 7d e8 00       	cmpq   $0x0,-0x18(%rbp)
    2798:	74 14                	je     27ae <main+0x1e5>
    279a:	48 8b 45 e8          	mov    -0x18(%rbp),%rax
    279e:	48 89 c7             	mov    %rax,%rdi
    27a1:	e8 8f 68 00 00       	call   9035 <destroy_tree>
    27a6:	48 c7 45 e8 00 00 00 	movq   $0x0,-0x18(%rbp)
    27ad:	00
    27ae:	b8 00 00 00 00       	mov    $0x0,%eax
    27b3:	c9                   	leave
    27b4:	c3                   	ret

00000000000027b5 <set_flags>:
    27b5:	f3 0f 1e fa          	endbr64
    27b9:	55                   	push   %rbp
    27ba:	48 89 e5             	mov    %rsp,%rbp
    27bd:	48 83 ec 20          	sub    $0x20,%rsp
    27c1:	48 89 7d e8          	mov    %rdi,-0x18(%rbp)
    27c5:	89 75 e4             	mov    %esi,-0x1c(%rbp)
    27c8:	c7 45 fc 00 00 00 00 	movl   $0x0,-0x4(%rbp)
    27cf:	e9 84 01 00 00       	jmp    2958 <set_flags+0x1a3>
    27d4:	8b 45 fc             	mov    -0x4(%rbp),%eax
    27d7:	48 98                	cltq
    27d9:	48 8d 14 c5 00 00 00 	lea    0x0(,%rax,8),%rdx
    27e0:	00
    27e1:	48 8b 45 e8          	mov    -0x18(%rbp),%rax
    27e5:	48 01 d0             	add    %rdx,%rax
    27e8:	48 8b 00             	mov    (%rax),%rax
    27eb:	48 8d 15 80 48 01 00 	lea    0x14880(%rip),%rdx        # 17072 <_IO_stdin_used+0x72>
    27f2:	48 89 d6             	mov    %rdx,%rsi
    27f5:	48 89 c7             	mov    %rax,%rdi
    27f8:	e8 c3 fb ff ff       	call   23c0 <strcmp@plt>
    27fd:	85 c0                	test   %eax,%eax
    27ff:	75 55                	jne    2856 <set_flags+0xa1>
    2801:	48 8b 05 58 e8 01 00 	mov    0x1e858(%rip),%rax        # 21060 <stderr@GLIBC_2.2.5>
    2808:	48 89 c1             	mov    %rax,%rcx
    280b:	ba 22 00 00 00       	mov    $0x22,%edx
    2810:	be 01 00 00 00       	mov    $0x1,%esi
    2815:	48 8d 05 64 48 01 00 	lea    0x14864(%rip),%rax        # 17080 <_IO_stdin_used+0x80>
    281c:	48 89 c7             	mov    %rax,%rdi
    281f:	e8 6c fc ff ff       	call   2490 <fwrite@plt>
    2824:	48 8b 05 35 e8 01 00 	mov    0x1e835(%rip),%rax        # 21060 <stderr@GLIBC_2.2.5>
    282b:	48 89 c1             	mov    %rax,%rcx
    282e:	ba 3f 00 00 00       	mov    $0x3f,%edx
    2833:	be 01 00 00 00       	mov    $0x1,%esi
    2838:	48 8d 05 69 48 01 00 	lea    0x14869(%rip),%rax        # 170a8 <_IO_stdin_used+0xa8>
    283f:	48 89 c7             	mov    %rax,%rdi
    2842:	e8 49 fc ff ff       	call   2490 <fwrite@plt>
    2847:	b8 00 00 00 00       	mov    $0x0,%eax
    284c:	e8 15 01 00 00       	call   2966 <set_nonlocal_flag>
    2851:	e9 fa 00 00 00       	jmp    2950 <set_flags+0x19b>
    2856:	8b 45 fc             	mov    -0x4(%rbp),%eax
    2859:	48 98                	cltq
    285b:	48 8d 14 c5 00 00 00 	lea    0x0(,%rax,8),%rdx
    2862:	00
    2863:	48 8b 45 e8          	mov    -0x18(%rbp),%rax
    2867:	48 01 d0             	add    %rdx,%rax
    286a:	48 8b 00             	mov    (%rax),%rax
    286d:	48 8d 15 74 48 01 00 	lea    0x14874(%rip),%rdx        # 170e8 <_IO_stdin_used+0xe8>
    2874:	48 89 d6             	mov    %rdx,%rsi
    2877:	48 89 c7             	mov    %rax,%rdi
    287a:	e8 41 fb ff ff       	call   23c0 <strcmp@plt>
    287f:	85 c0                	test   %eax,%eax
    2881:	75 32                	jne    28b5 <set_flags+0x100>
    2883:	48 8b 05 d6 e7 01 00 	mov    0x1e7d6(%rip),%rax        # 21060 <stderr@GLIBC_2.2.5>
    288a:	48 89 c1             	mov    %rax,%rcx
    288d:	ba 1b 00 00 00       	mov    $0x1b,%edx
    2892:	be 01 00 00 00       	mov    $0x1,%esi
    2897:	48 8d 05 4e 48 01 00 	lea    0x1484e(%rip),%rax        # 170ec <_IO_stdin_used+0xec>
    289e:	48 89 c7             	mov    %rax,%rdi
    28a1:	e8 ea fb ff ff       	call   2490 <fwrite@plt>
    28a6:	b8 00 00 00 00       	mov    $0x0,%eax
    28ab:	e8 cb 00 00 00       	call   297b <set_o1_flag>
    28b0:	e9 9b 00 00 00       	jmp    2950 <set_flags+0x19b>
    28b5:	8b 45 fc             	mov    -0x4(%rbp),%eax
    28b8:	48 98                	cltq
    28ba:	48 8d 14 c5 00 00 00 	lea    0x0(,%rax,8),%rdx
    28c1:	00
    28c2:	48 8b 45 e8          	mov    -0x18(%rbp),%rax
    28c6:	48 01 d0             	add    %rdx,%rax
    28c9:	48 8b 00             	mov    (%rax),%rax
    28cc:	48 8d 15 35 48 01 00 	lea    0x14835(%rip),%rdx        # 17108 <_IO_stdin_used+0x108>
    28d3:	48 89 d6             	mov    %rdx,%rsi
    28d6:	48 89 c7             	mov    %rax,%rdi
    28d9:	e8 e2 fa ff ff       	call   23c0 <strcmp@plt>
    28de:	85 c0                	test   %eax,%eax
    28e0:	75 2f                	jne    2911 <set_flags+0x15c>
    28e2:	48 8b 05 77 e7 01 00 	mov    0x1e777(%rip),%rax        # 21060 <stderr@GLIBC_2.2.5>
    28e9:	48 89 c1             	mov    %rax,%rcx
    28ec:	ba 1b 00 00 00       	mov    $0x1b,%edx
    28f1:	be 01 00 00 00       	mov    $0x1,%esi
    28f6:	48 8d 05 0f 48 01 00 	lea    0x1480f(%rip),%rax        # 1710c <_IO_stdin_used+0x10c>
    28fd:	48 89 c7             	mov    %rax,%rdi
    2900:	e8 8b fb ff ff       	call   2490 <fwrite@plt>
    2905:	b8 00 00 00 00       	mov    $0x0,%eax
    290a:	e8 8b 00 00 00       	call   299a <set_o2_flag>
    290f:	eb 3f                	jmp    2950 <set_flags+0x19b>
    2911:	8b 45 fc             	mov    -0x4(%rbp),%eax
    2914:	48 98                	cltq
    2916:	48 8d 14 c5 00 00 00 	lea    0x0(,%rax,8),%rdx
    291d:	00
    291e:	48 8b 45 e8          	mov    -0x18(%rbp),%rax
    2922:	48 01 d0             	add    %rdx,%rax
    2925:	48 8b 10             	mov    (%rax),%rdx
    2928:	48 8b 05 31 e7 01 00 	mov    0x1e731(%rip),%rax        # 21060 <stderr@GLIBC_2.2.5>
    292f:	48 8d 0d f2 47 01 00 	lea    0x147f2(%rip),%rcx        # 17128 <_IO_stdin_used+0x128>
    2936:	48 89 ce             	mov    %rcx,%rsi
    2939:	48 89 c7             	mov    %rax,%rdi
    293c:	b8 00 00 00 00       	mov    $0x0,%eax
    2941:	e8 8a fa ff ff       	call   23d0 <fprintf@plt>
    2946:	bf 01 00 00 00       	mov    $0x1,%edi
    294b:	e8 30 fb ff ff       	call   2480 <exit@plt>
    2950:	83 6d e4 01          	subl   $0x1,-0x1c(%rbp)
    2954:	83 45 fc 01          	addl   $0x1,-0x4(%rbp)
    2958:	83 7d e4 00          	cmpl   $0x0,-0x1c(%rbp)
    295c:	0f 8f 72 fe ff ff    	jg     27d4 <set_flags+0x1f>
    2962:	90                   	nop
    2963:	90                   	nop
    2964:	c9                   	leave
    2965:	c3                   	ret

0000000000002966 <set_nonlocal_flag>:
    2966:	f3 0f 1e fa          	endbr64
    296a:	55                   	push   %rbp
    296b:	48 89 e5             	mov    %rsp,%rbp
    296e:	c7 05 10 e7 01 00 01 	movl   $0x1,0x1e710(%rip)        # 21088 <FLAG_NON_LOCAL_CHASING>
    2975:	00 00 00
    2978:	90                   	nop
    2979:	5d                   	pop    %rbp
    297a:	c3                   	ret

000000000000297b <set_o1_flag>:
    297b:	f3 0f 1e fa          	endbr64
    297f:	55                   	push   %rbp
    2980:	48 89 e5             	mov    %rsp,%rbp
    2983:	8b 05 03 e7 01 00    	mov    0x1e703(%rip),%eax        # 2108c <FLAG_OPTIMIZE>
    2989:	85 c0                	test   %eax,%eax
    298b:	7f 0a                	jg     2997 <set_o1_flag+0x1c>
    298d:	c7 05 f5 e6 01 00 01 	movl   $0x1,0x1e6f5(%rip)        # 2108c <FLAG_OPTIMIZE>
    2994:	00 00 00
    2997:	90                   	nop
    2998:	5d                   	pop    %rbp
    2999:	c3                   	ret

000000000000299a <set_o2_flag>:
    299a:	f3 0f 1e fa          	endbr64
    299e:	55                   	push   %rbp
    299f:	48 89 e5             	mov    %rsp,%rbp
    29a2:	8b 05 e4 e6 01 00    	mov    0x1e6e4(%rip),%eax        # 2108c <FLAG_OPTIMIZE>
    29a8:	83 f8 01             	cmp    $0x1,%eax
    29ab:	7f 0a                	jg     29b7 <set_o2_flag+0x1d>
    29ad:	c7 05 d5 e6 01 00 02 	movl   $0x2,0x1e6d5(%rip)        # 2108c <FLAG_OPTIMIZE>
    29b4:	00 00 00
    29b7:	90                   	nop
    29b8:	5d                   	pop    %rbp
    29b9:	c3                   	ret

00000000000029ba <nonlocal_flag>:
    29ba:	f3 0f 1e fa          	endbr64
    29be:	55                   	push   %rbp
    29bf:	48 89 e5             	mov    %rsp,%rbp
    29c2:	8b 05 c0 e6 01 00    	mov    0x1e6c0(%rip),%eax        # 21088 <FLAG_NON_LOCAL_CHASING>
    29c8:	5d                   	pop    %rbp
    29c9:	c3                   	ret

00000000000029ca <optimize_flag>:
    29ca:	f3 0f 1e fa          	endbr64
    29ce:	55                   	push   %rbp
    29cf:	48 89 e5             	mov    %rsp,%rbp
    29d2:	8b 05 b4 e6 01 00    	mov    0x1e6b4(%rip),%eax        # 2108c <FLAG_OPTIMIZE>
    29d8:	5d                   	pop    %rbp
    29d9:	c3                   	ret

00000000000029da <is_defined>:
    29da:	f3 0f 1e fa          	endbr64
    29de:	55                   	push   %rbp
    29df:	48 89 e5             	mov    %rsp,%rbp
    29e2:	48 83 ec 20          	sub    $0x20,%rsp
    29e6:	48 89 7d e8          	mov    %rdi,-0x18(%rbp)
    29ea:	c7 45 fc 00 00 00 00 	movl   $0x0,-0x4(%rbp)
    29f1:	eb 36                	jmp    2a29 <is_defined+0x4f>
    29f3:	8b 45 fc             	mov    -0x4(%rbp),%eax
    29f6:	48 98                	cltq
    29f8:	48 8d 14 c5 00 00 00 	lea    0x0(,%rax,8),%rdx
    29ff:	00
    2a00:	48 8d 05 19 e6 01 00 	lea    0x1e619(%rip),%rax        # 21020 <defined_symbols>
    2a07:	48 8b 04 02          	mov    (%rdx,%rax,1),%rax
    2a0b:	48 8b 55 e8          	mov    -0x18(%rbp),%rdx
    2a0f:	48 89 d6             	mov    %rdx,%rsi
    2a12:	48 89 c7             	mov    %rax,%rdi
    2a15:	e8 a6 f9 ff ff       	call   23c0 <strcmp@plt>
    2a1a:	85 c0                	test   %eax,%eax
    2a1c:	75 07                	jne    2a25 <is_defined+0x4b>
    2a1e:	b8 01 00 00 00       	mov    $0x1,%eax
    2a23:	eb 26                	jmp    2a4b <is_defined+0x71>
    2a25:	83 45 fc 01          	addl   $0x1,-0x4(%rbp)
    2a29:	8b 45 fc             	mov    -0x4(%rbp),%eax
    2a2c:	48 98                	cltq
    2a2e:	48 8d 14 c5 00 00 00 	lea    0x0(,%rax,8),%rdx
    2a35:	00
    2a36:	48 8d 05 e3 e5 01 00 	lea    0x1e5e3(%rip),%rax        # 21020 <defined_symbols>
    2a3d:	48 8b 04 02          	mov    (%rdx,%rax,1),%rax
    2a41:	48 85 c0             	test   %rax,%rax
    2a44:	75 ad                	jne    29f3 <is_defined+0x19>
    2a46:	b8 00 00 00 00       	mov    $0x0,%eax
    2a4b:	c9                   	leave
    2a4c:	c3                   	ret

0000000000002a4d <yylex>:
    2a4d:	f3 0f 1e fa          	endbr64
    2a51:	55                   	push   %rbp
    2a52:	48 89 e5             	mov    %rsp,%rbp
    2a55:	53                   	push   %rbx
    2a56:	48 81 ec b8 00 00 00 	sub    $0xb8,%rsp
    2a5d:	64 48 8b 04 25 28 00 	mov    %fs:0x28,%rax
    2a64:	00 00
    2a66:	48 89 45 e8          	mov    %rax,-0x18(%rbp)
    2a6a:	31 c0                	xor    %eax,%eax
    2a6c:	8b 05 2e ec 01 00    	mov    0x1ec2e(%rip),%eax        # 216a0 <yy_init>
    2a72:	85 c0                	test   %eax,%eax
    2a74:	0f 85 b2 00 00 00    	jne    2b2c <yylex+0xdf>
    2a7a:	c7 05 1c ec 01 00 01 	movl   $0x1,0x1ec1c(%rip)        # 216a0 <yy_init>
    2a81:	00 00 00
    2a84:	8b 05 1a ec 01 00    	mov    0x1ec1a(%rip),%eax        # 216a4 <yy_start>
    2a8a:	85 c0                	test   %eax,%eax
    2a8c:	75 0a                	jne    2a98 <yylex+0x4b>
    2a8e:	c7 05 0c ec 01 00 01 	movl   $0x1,0x1ec0c(%rip)        # 216a4 <yy_start>
    2a95:	00 00 00
    2a98:	48 8b 05 09 e6 01 00 	mov    0x1e609(%rip),%rax        # 210a8 <yyin>
    2a9f:	48 85 c0             	test   %rax,%rax
    2aa2:	75 0e                	jne    2ab2 <yylex+0x65>
    2aa4:	48 8b 05 a5 e5 01 00 	mov    0x1e5a5(%rip),%rax        # 21050 <stdin@GLIBC_2.2.5>
    2aab:	48 89 05 f6 e5 01 00 	mov    %rax,0x1e5f6(%rip)        # 210a8 <yyin>
    2ab2:	48 8b 05 f7 e5 01 00 	mov    0x1e5f7(%rip),%rax        # 210b0 <yyout>
    2ab9:	48 85 c0             	test   %rax,%rax
    2abc:	75 0e                	jne    2acc <yylex+0x7f>
    2abe:	48 8b 05 7b e5 01 00 	mov    0x1e57b(%rip),%rax        # 21040 <stdout@GLIBC_2.2.5>
    2ac5:	48 89 05 e4 e5 01 00 	mov    %rax,0x1e5e4(%rip)        # 210b0 <yyout>
    2acc:	48 8b 05 b5 eb 01 00 	mov    0x1ebb5(%rip),%rax        # 21688 <yy_buffer_stack>
    2ad3:	48 85 c0             	test   %rax,%rax
    2ad6:	74 1d                	je     2af5 <yylex+0xa8>
    2ad8:	48 8b 05 a9 eb 01 00 	mov    0x1eba9(%rip),%rax        # 21688 <yy_buffer_stack>
    2adf:	48 8b 15 92 eb 01 00 	mov    0x1eb92(%rip),%rdx        # 21678 <yy_buffer_stack_top>
    2ae6:	48 c1 e2 03          	shl    $0x3,%rdx
    2aea:	48 01 d0             	add    %rdx,%rax
    2aed:	48 8b 00             	mov    (%rax),%rax
    2af0:	48 85 c0             	test   %rax,%rax
    2af3:	75 32                	jne    2b27 <yylex+0xda>
    2af5:	e8 31 21 00 00       	call   4c2b <yyensure_buffer_stack>
    2afa:	48 8b 05 a7 e5 01 00 	mov    0x1e5a7(%rip),%rax        # 210a8 <yyin>
    2b01:	48 8b 15 80 eb 01 00 	mov    0x1eb80(%rip),%rdx        # 21688 <yy_buffer_stack>
    2b08:	48 8b 0d 69 eb 01 00 	mov    0x1eb69(%rip),%rcx        # 21678 <yy_buffer_stack_top>
    2b0f:	48 c1 e1 03          	shl    $0x3,%rcx
    2b13:	48 8d 1c 0a          	lea    (%rdx,%rcx,1),%rbx
    2b17:	be 00 40 00 00       	mov    $0x4000,%esi
    2b1c:	48 89 c7             	mov    %rax,%rdi
    2b1f:	e8 89 1c 00 00       	call   47ad <yy_create_buffer>
    2b24:	48 89 03             	mov    %rax,(%rbx)
    2b27:	e8 f2 1b 00 00       	call   471e <yy_load_buffer_state>
    2b2c:	48 8b 05 65 eb 01 00 	mov    0x1eb65(%rip),%rax        # 21698 <yy_c_buf_p>
    2b33:	48 89 85 58 ff ff ff 	mov    %rax,-0xa8(%rbp)
    2b3a:	0f b6 15 4f eb 01 00 	movzbl 0x1eb4f(%rip),%edx        # 21690 <yy_hold_char>
    2b41:	48 8b 85 58 ff ff ff 	mov    -0xa8(%rbp),%rax
    2b48:	88 10                	mov    %dl,(%rax)
    2b4a:	48 8b 85 58 ff ff ff 	mov    -0xa8(%rbp),%rax
    2b51:	48 89 85 60 ff ff ff 	mov    %rax,-0xa0(%rbp)
    2b58:	8b 05 46 eb 01 00    	mov    0x1eb46(%rip),%eax        # 216a4 <yy_start>
    2b5e:	89 85 44 ff ff ff    	mov    %eax,-0xbc(%rbp)
    2b64:	48 8b 85 58 ff ff ff 	mov    -0xa8(%rbp),%rax
    2b6b:	0f b6 00             	movzbl (%rax),%eax
    2b6e:	0f b6 c0             	movzbl %al,%eax
    2b71:	48 98                	cltq
    2b73:	48 8d 15 a6 47 01 00 	lea    0x147a6(%rip),%rdx        # 17320 <yy_ec>
    2b7a:	0f b6 04 10          	movzbl (%rax,%rdx,1),%eax
    2b7e:	88 85 43 ff ff ff    	mov    %al,-0xbd(%rbp)
    2b84:	8b 85 44 ff ff ff    	mov    -0xbc(%rbp),%eax
    2b8a:	48 98                	cltq
    2b8c:	48 8d 14 00          	lea    (%rax,%rax,1),%rdx
    2b90:	48 8d 05 c9 45 01 00 	lea    0x145c9(%rip),%rax        # 17160 <yy_accept>
    2b97:	0f b7 04 02          	movzwl (%rdx,%rax,1),%eax
    2b9b:	66 85 c0             	test   %ax,%ax
    2b9e:	74 60                	je     2c00 <yylex+0x1b3>
    2ba0:	8b 85 44 ff ff ff    	mov    -0xbc(%rbp),%eax
    2ba6:	89 05 00 eb 01 00    	mov    %eax,0x1eb00(%rip)        # 216ac <yy_last_accepting_state>
    2bac:	48 8b 85 58 ff ff ff 	mov    -0xa8(%rbp),%rax
    2bb3:	48 89 05 f6 ea 01 00 	mov    %rax,0x1eaf6(%rip)        # 216b0 <yy_last_accepting_cpos>
    2bba:	eb 44                	jmp    2c00 <yylex+0x1b3>
    2bbc:	8b 85 44 ff ff ff    	mov    -0xbc(%rbp),%eax
    2bc2:	48 98                	cltq
    2bc4:	48 8d 14 00          	lea    (%rax,%rax,1),%rdx
    2bc8:	48 8d 05 71 4a 01 00 	lea    0x14a71(%rip),%rax        # 17640 <yy_def>
    2bcf:	0f b7 04 02          	movzwl (%rdx,%rax,1),%eax
    2bd3:	98                   	cwtl
    2bd4:	89 85 44 ff ff ff    	mov    %eax,-0xbc(%rbp)
    2bda:	81 bd 44 ff ff ff d4 	cmpl   $0xd4,-0xbc(%rbp)
    2be1:	00 00 00
    2be4:	7e 1a                	jle    2c00 <yylex+0x1b3>
    2be6:	0f b6 85 43 ff ff ff 	movzbl -0xbd(%rbp),%eax
    2bed:	48 98                	cltq
    2bef:	48 8d 15 2a 48 01 00 	lea    0x1482a(%rip),%rdx        # 17420 <yy_meta>
    2bf6:	0f b6 04 10          	movzbl (%rax,%rdx,1),%eax
    2bfa:	88 85 43 ff ff ff    	mov    %al,-0xbd(%rbp)
    2c00:	8b 85 44 ff ff ff    	mov    -0xbc(%rbp),%eax
    2c06:	48 98                	cltq
    2c08:	48 8d 14 00          	lea    (%rax,%rax,1),%rdx
    2c0c:	48 8d 05 4d 48 01 00 	lea    0x1484d(%rip),%rax        # 17460 <yy_base>
    2c13:	0f b7 04 02          	movzwl (%rdx,%rax,1),%eax
    2c17:	0f bf d0             	movswl %ax,%edx
    2c1a:	0f b6 85 43 ff ff ff 	movzbl -0xbd(%rbp),%eax
    2c21:	01 d0                	add    %edx,%eax
    2c23:	48 98                	cltq
    2c25:	48 8d 14 00          	lea    (%rax,%rax,1),%rdx
    2c29:	48 8d 05 90 4e 01 00 	lea    0x14e90(%rip),%rax        # 17ac0 <yy_chk>
    2c30:	0f b7 04 02          	movzwl (%rdx,%rax,1),%eax
    2c34:	98                   	cwtl
    2c35:	39 85 44 ff ff ff    	cmp    %eax,-0xbc(%rbp)
    2c3b:	0f 85 7b ff ff ff    	jne    2bbc <yylex+0x16f>
    2c41:	8b 85 44 ff ff ff    	mov    -0xbc(%rbp),%eax
    2c47:	48 98                	cltq
    2c49:	48 8d 14 00          	lea    (%rax,%rax,1),%rdx
    2c4d:	48 8d 05 0c 48 01 00 	lea    0x1480c(%rip),%rax        # 17460 <yy_base>
    2c54:	0f b7 04 02          	movzwl (%rdx,%rax,1),%eax
    2c58:	0f bf d0             	movswl %ax,%edx
    2c5b:	0f b6 85 43 ff ff ff 	movzbl -0xbd(%rbp),%eax
    2c62:	01 d0                	add    %edx,%eax
    2c64:	48 98                	cltq
    2c66:	48 8d 14 00          	lea    (%rax,%rax,1),%rdx
    2c6a:	48 8d 05 af 4b 01 00 	lea    0x14baf(%rip),%rax        # 17820 <yy_nxt>
    2c71:	0f b7 04 02          	movzwl (%rdx,%rax,1),%eax
    2c75:	98                   	cwtl
    2c76:	89 85 44 ff ff ff    	mov    %eax,-0xbc(%rbp)
    2c7c:	48 83 85 58 ff ff ff 	addq   $0x1,-0xa8(%rbp)
    2c83:	01
    2c84:	8b 85 44 ff ff ff    	mov    -0xbc(%rbp),%eax
    2c8a:	48 98                	cltq
    2c8c:	48 8d 14 00          	lea    (%rax,%rax,1),%rdx
    2c90:	48 8d 05 c9 47 01 00 	lea    0x147c9(%rip),%rax        # 17460 <yy_base>
    2c97:	0f b7 04 02          	movzwl (%rdx,%rax,1),%eax
    2c9b:	66 3d 12 01          	cmp    $0x112,%ax
    2c9f:	0f 85 bf fe ff ff    	jne    2b64 <yylex+0x117>
    2ca5:	90                   	nop
    2ca6:	8b 85 44 ff ff ff    	mov    -0xbc(%rbp),%eax
    2cac:	48 98                	cltq
    2cae:	48 8d 14 00          	lea    (%rax,%rax,1),%rdx
    2cb2:	48 8d 05 a7 44 01 00 	lea    0x144a7(%rip),%rax        # 17160 <yy_accept>
    2cb9:	0f b7 04 02          	movzwl (%rdx,%rax,1),%eax
    2cbd:	98                   	cwtl
    2cbe:	89 85 48 ff ff ff    	mov    %eax,-0xb8(%rbp)
    2cc4:	83 bd 48 ff ff ff 00 	cmpl   $0x0,-0xb8(%rbp)
    2ccb:	75 38                	jne    2d05 <yylex+0x2b8>
    2ccd:	48 8b 05 dc e9 01 00 	mov    0x1e9dc(%rip),%rax        # 216b0 <yy_last_accepting_cpos>
    2cd4:	48 89 85 58 ff ff ff 	mov    %rax,-0xa8(%rbp)
    2cdb:	8b 05 cb e9 01 00    	mov    0x1e9cb(%rip),%eax        # 216ac <yy_last_accepting_state>
    2ce1:	89 85 44 ff ff ff    	mov    %eax,-0xbc(%rbp)
    2ce7:	8b 85 44 ff ff ff    	mov    -0xbc(%rbp),%eax
    2ced:	48 98                	cltq
    2cef:	48 8d 14 00          	lea    (%rax,%rax,1),%rdx
    2cf3:	48 8d 05 66 44 01 00 	lea    0x14466(%rip),%rax        # 17160 <yy_accept>
    2cfa:	0f b7 04 02          	movzwl (%rdx,%rax,1),%eax
    2cfe:	98                   	cwtl
    2cff:	89 85 48 ff ff ff    	mov    %eax,-0xb8(%rbp)
    2d05:	48 8b 85 60 ff ff ff 	mov    -0xa0(%rbp),%rax
    2d0c:	48 89 05 ad e3 01 00 	mov    %rax,0x1e3ad(%rip)        # 210c0 <yytext>
    2d13:	48 8b 85 58 ff ff ff 	mov    -0xa8(%rbp),%rax
    2d1a:	48 2b 85 60 ff ff ff 	sub    -0xa0(%rbp),%rax
    2d21:	89 05 79 e3 01 00    	mov    %eax,0x1e379(%rip)        # 210a0 <yyleng>
    2d27:	48 8b 85 58 ff ff ff 	mov    -0xa8(%rbp),%rax
    2d2e:	0f b6 00             	movzbl (%rax),%eax
    2d31:	88 05 59 e9 01 00    	mov    %al,0x1e959(%rip)        # 21690 <yy_hold_char>
    2d37:	48 8b 85 58 ff ff ff 	mov    -0xa8(%rbp),%rax
    2d3e:	c6 00 00             	movb   $0x0,(%rax)
    2d41:	48 8b 85 58 ff ff ff 	mov    -0xa8(%rbp),%rax
    2d48:	48 89 05 49 e9 01 00 	mov    %rax,0x1e949(%rip)        # 21698 <yy_c_buf_p>
    2d4f:	83 bd 48 ff ff ff 42 	cmpl   $0x42,-0xb8(%rbp)
    2d56:	0f 87 41 0c 00 00    	ja     399d <yylex+0xf50>
    2d5c:	8b 85 48 ff ff ff    	mov    -0xb8(%rbp),%eax
    2d62:	48 8d 14 85 00 00 00 	lea    0x0(,%rax,4),%rdx
    2d69:	00
    2d6a:	48 8d 05 43 50 01 00 	lea    0x15043(%rip),%rax        # 17db4 <yy_chk+0x2f4>
    2d71:	8b 04 02             	mov    (%rdx,%rax,1),%eax
    2d74:	48 98                	cltq
    2d76:	48 8d 15 37 50 01 00 	lea    0x15037(%rip),%rdx        # 17db4 <yy_chk+0x2f4>
    2d7d:	48 01 d0             	add    %rdx,%rax
    2d80:	3e ff e0             	notrack jmp *%rax
    2d83:	0f b6 15 06 e9 01 00 	movzbl 0x1e906(%rip),%edx        # 21690 <yy_hold_char>
    2d8a:	48 8b 85 58 ff ff ff 	mov    -0xa8(%rbp),%rax
    2d91:	88 10                	mov    %dl,(%rax)
    2d93:	48 8b 05 16 e9 01 00 	mov    0x1e916(%rip),%rax        # 216b0 <yy_last_accepting_cpos>
    2d9a:	48 89 85 58 ff ff ff 	mov    %rax,-0xa8(%rbp)
    2da1:	8b 05 05 e9 01 00    	mov    0x1e905(%rip),%eax        # 216ac <yy_last_accepting_state>
    2da7:	89 85 44 ff ff ff    	mov    %eax,-0xbc(%rbp)
    2dad:	e9 f4 fe ff ff       	jmp    2ca6 <yylex+0x259>
    2db2:	0f b6 15 d7 e8 01 00 	movzbl 0x1e8d7(%rip),%edx        # 21690 <yy_hold_char>
    2db9:	48 8b 85 58 ff ff ff 	mov    -0xa8(%rbp),%rax
    2dc0:	88 10                	mov    %dl,(%rax)
    2dc2:	48 8b 85 60 ff ff ff 	mov    -0xa0(%rbp),%rax
    2dc9:	48 83 c0 01          	add    $0x1,%rax
    2dcd:	48 89 85 58 ff ff ff 	mov    %rax,-0xa8(%rbp)
    2dd4:	48 8b 85 58 ff ff ff 	mov    -0xa8(%rbp),%rax
    2ddb:	48 89 05 b6 e8 01 00 	mov    %rax,0x1e8b6(%rip)        # 21698 <yy_c_buf_p>
    2de2:	48 8b 85 60 ff ff ff 	mov    -0xa0(%rbp),%rax
    2de9:	48 89 05 d0 e2 01 00 	mov    %rax,0x1e2d0(%rip)        # 210c0 <yytext>
    2df0:	48 8b 85 58 ff ff ff 	mov    -0xa8(%rbp),%rax
    2df7:	48 2b 85 60 ff ff ff 	sub    -0xa0(%rbp),%rax
    2dfe:	89 05 9c e2 01 00    	mov    %eax,0x1e29c(%rip)        # 210a0 <yyleng>
    2e04:	48 8b 85 58 ff ff ff 	mov    -0xa8(%rbp),%rax
    2e0b:	0f b6 00             	movzbl (%rax),%eax
    2e0e:	88 05 7c e8 01 00    	mov    %al,0x1e87c(%rip)        # 21690 <yy_hold_char>
    2e14:	48 8b 85 58 ff ff ff 	mov    -0xa8(%rbp),%rax
    2e1b:	c6 00 00             	movb   $0x0,(%rax)
    2e1e:	48 8b 85 58 ff ff ff 	mov    -0xa8(%rbp),%rax
    2e25:	48 89 05 6c e8 01 00 	mov    %rax,0x1e86c(%rip)        # 21698 <yy_c_buf_p>
    2e2c:	c7 05 6e e8 01 00 05 	movl   $0x5,0x1e86e(%rip)        # 216a4 <yy_start>
    2e33:	00 00 00
    2e36:	e9 a2 0b 00 00       	jmp    39dd <yylex+0xf90>
    2e3b:	c7 05 5f e8 01 00 01 	movl   $0x1,0x1e85f(%rip)        # 216a4 <yy_start>
    2e42:	00 00 00
    2e45:	e9 93 0b 00 00       	jmp    39dd <yylex+0xf90>
    2e4a:	48 8b 05 6f e2 01 00 	mov    0x1e26f(%rip),%rax        # 210c0 <yytext>
    2e51:	0f b6 00             	movzbl (%rax),%eax
    2e54:	3c 0a                	cmp    $0xa,%al
    2e56:	0f 85 56 0b 00 00    	jne    39b2 <yylex+0xf65>
    2e5c:	8b 05 b2 e1 01 00    	mov    0x1e1b2(%rip),%eax        # 21014 <line_num>
    2e62:	83 c0 01             	add    $0x1,%eax
    2e65:	89 05 a9 e1 01 00    	mov    %eax,0x1e1a9(%rip)        # 21014 <line_num>
    2e6b:	e9 42 0b 00 00       	jmp    39b2 <yylex+0xf65>
    2e70:	48 8b 05 49 e2 01 00 	mov    0x1e249(%rip),%rax        # 210c0 <yytext>
    2e77:	48 8d 55 80          	lea    -0x80(%rbp),%rdx
    2e7b:	48 8d 0d ca 4e 01 00 	lea    0x14eca(%rip),%rcx        # 17d4c <yy_chk+0x28c>
    2e82:	48 89 ce             	mov    %rcx,%rsi
    2e85:	48 89 c7             	mov    %rax,%rdi
    2e88:	b8 00 00 00 00       	mov    $0x0,%eax
    2e8d:	e8 8e f5 ff ff       	call   2420 <__isoc99_sscanf@plt>
    2e92:	8b 05 d8 e7 01 00    	mov    0x1e7d8(%rip),%eax        # 21670 <if_stack_ptr>
    2e98:	85 c0                	test   %eax,%eax
    2e9a:	7e 4a                	jle    2ee6 <yylex+0x499>
    2e9c:	8b 05 ce e7 01 00    	mov    0x1e7ce(%rip),%eax        # 21670 <if_stack_ptr>
    2ea2:	83 e8 01             	sub    $0x1,%eax
    2ea5:	48 98                	cltq
    2ea7:	48 8d 14 85 00 00 00 	lea    0x0(,%rax,4),%rdx
    2eae:	00
    2eaf:	48 8d 05 2a e6 01 00 	lea    0x1e62a(%rip),%rax        # 214e0 <if_stack>
    2eb6:	8b 04 02             	mov    (%rdx,%rax,1),%eax
    2eb9:	85 c0                	test   %eax,%eax
    2ebb:	75 29                	jne    2ee6 <yylex+0x499>
    2ebd:	8b 05 ad e7 01 00    	mov    0x1e7ad(%rip),%eax        # 21670 <if_stack_ptr>
    2ec3:	8d 50 01             	lea    0x1(%rax),%edx
    2ec6:	89 15 a4 e7 01 00    	mov    %edx,0x1e7a4(%rip)        # 21670 <if_stack_ptr>
    2ecc:	48 98                	cltq
    2ece:	48 8d 14 85 00 00 00 	lea    0x0(,%rax,4),%rdx
    2ed5:	00
    2ed6:	48 8d 05 03 e6 01 00 	lea    0x1e603(%rip),%rax        # 214e0 <if_stack>
    2edd:	c7 04 02 00 00 00 00 	movl   $0x0,(%rdx,%rax,1)
    2ee4:	eb 30                	jmp    2f16 <yylex+0x4c9>
    2ee6:	8b 1d 84 e7 01 00    	mov    0x1e784(%rip),%ebx        # 21670 <if_stack_ptr>
    2eec:	8d 43 01             	lea    0x1(%rbx),%eax
    2eef:	89 05 7b e7 01 00    	mov    %eax,0x1e77b(%rip)        # 21670 <if_stack_ptr>
    2ef5:	48 8d 45 80          	lea    -0x80(%rbp),%rax
    2ef9:	48 89 c7             	mov    %rax,%rdi
    2efc:	e8 d9 fa ff ff       	call   29da <is_defined>
    2f01:	48 63 d3             	movslq %ebx,%rdx
    2f04:	48 8d 0c 95 00 00 00 	lea    0x0(,%rdx,4),%rcx
    2f0b:	00
    2f0c:	48 8d 15 cd e5 01 00 	lea    0x1e5cd(%rip),%rdx        # 214e0 <if_stack>
    2f13:	89 04 11             	mov    %eax,(%rcx,%rdx,1)
    2f16:	8b 05 54 e7 01 00    	mov    0x1e754(%rip),%eax        # 21670 <if_stack_ptr>
    2f1c:	83 e8 01             	sub    $0x1,%eax
    2f1f:	48 98                	cltq
    2f21:	48 8d 14 85 00 00 00 	lea    0x0(,%rax,4),%rdx
    2f28:	00
    2f29:	48 8d 05 b0 e5 01 00 	lea    0x1e5b0(%rip),%rax        # 214e0 <if_stack>
    2f30:	8b 04 02             	mov    (%rdx,%rax,1),%eax
    2f33:	85 c0                	test   %eax,%eax
    2f35:	0f 85 7d 0a 00 00    	jne    39b8 <yylex+0xf6b>
    2f3b:	c7 05 5f e7 01 00 07 	movl   $0x7,0x1e75f(%rip)        # 216a4 <yy_start>
    2f42:	00 00 00
    2f45:	e9 6e 0a 00 00       	jmp    39b8 <yylex+0xf6b>
    2f4a:	48 8b 05 6f e1 01 00 	mov    0x1e16f(%rip),%rax        # 210c0 <yytext>
    2f51:	48 8d 55 80          	lea    -0x80(%rbp),%rdx
    2f55:	48 8d 0d fe 4d 01 00 	lea    0x14dfe(%rip),%rcx        # 17d5a <yy_chk+0x29a>
    2f5c:	48 89 ce             	mov    %rcx,%rsi
    2f5f:	48 89 c7             	mov    %rax,%rdi
    2f62:	b8 00 00 00 00       	mov    $0x0,%eax
    2f67:	e8 b4 f4 ff ff       	call   2420 <__isoc99_sscanf@plt>
    2f6c:	8b 05 fe e6 01 00    	mov    0x1e6fe(%rip),%eax        # 21670 <if_stack_ptr>
    2f72:	85 c0                	test   %eax,%eax
    2f74:	7e 4a                	jle    2fc0 <yylex+0x573>
    2f76:	8b 05 f4 e6 01 00    	mov    0x1e6f4(%rip),%eax        # 21670 <if_stack_ptr>
    2f7c:	83 e8 01             	sub    $0x1,%eax
    2f7f:	48 98                	cltq
    2f81:	48 8d 14 85 00 00 00 	lea    0x0(,%rax,4),%rdx
    2f88:	00
    2f89:	48 8d 05 50 e5 01 00 	lea    0x1e550(%rip),%rax        # 214e0 <if_stack>
    2f90:	8b 04 02             	mov    (%rdx,%rax,1),%eax
    2f93:	85 c0                	test   %eax,%eax
    2f95:	75 29                	jne    2fc0 <yylex+0x573>
    2f97:	8b 05 d3 e6 01 00    	mov    0x1e6d3(%rip),%eax        # 21670 <if_stack_ptr>
    2f9d:	8d 50 01             	lea    0x1(%rax),%edx
    2fa0:	89 15 ca e6 01 00    	mov    %edx,0x1e6ca(%rip)        # 21670 <if_stack_ptr>
    2fa6:	48 98                	cltq
    2fa8:	48 8d 14 85 00 00 00 	lea    0x0(,%rax,4),%rdx
    2faf:	00
    2fb0:	48 8d 05 29 e5 01 00 	lea    0x1e529(%rip),%rax        # 214e0 <if_stack>
    2fb7:	c7 04 02 00 00 00 00 	movl   $0x0,(%rdx,%rax,1)
    2fbe:	eb 37                	jmp    2ff7 <yylex+0x5aa>
    2fc0:	48 8d 45 80          	lea    -0x80(%rbp),%rax
    2fc4:	48 89 c7             	mov    %rax,%rdi
    2fc7:	e8 0e fa ff ff       	call   29da <is_defined>
    2fcc:	85 c0                	test   %eax,%eax
    2fce:	0f 94 c1             	sete   %cl
    2fd1:	8b 05 99 e6 01 00    	mov    0x1e699(%rip),%eax        # 21670 <if_stack_ptr>
    2fd7:	8d 50 01             	lea    0x1(%rax),%edx
    2fda:	89 15 90 e6 01 00    	mov    %edx,0x1e690(%rip)        # 21670 <if_stack_ptr>
    2fe0:	0f b6 d1             	movzbl %cl,%edx
    2fe3:	48 98                	cltq
    2fe5:	48 8d 0c 85 00 00 00 	lea    0x0(,%rax,4),%rcx
    2fec:	00
    2fed:	48 8d 05 ec e4 01 00 	lea    0x1e4ec(%rip),%rax        # 214e0 <if_stack>
    2ff4:	89 14 01             	mov    %edx,(%rcx,%rax,1)
    2ff7:	8b 05 73 e6 01 00    	mov    0x1e673(%rip),%eax        # 21670 <if_stack_ptr>
    2ffd:	83 e8 01             	sub    $0x1,%eax
    3000:	48 98                	cltq
    3002:	48 8d 14 85 00 00 00 	lea    0x0(,%rax,4),%rdx
    3009:	00
    300a:	48 8d 05 cf e4 01 00 	lea    0x1e4cf(%rip),%rax        # 214e0 <if_stack>
    3011:	8b 04 02             	mov    (%rdx,%rax,1),%eax
    3014:	85 c0                	test   %eax,%eax
    3016:	0f 85 a2 09 00 00    	jne    39be <yylex+0xf71>
    301c:	c7 05 7e e6 01 00 07 	movl   $0x7,0x1e67e(%rip)        # 216a4 <yy_start>
    3023:	00 00 00
    3026:	e9 93 09 00 00       	jmp    39be <yylex+0xf71>
    302b:	8b 05 3f e6 01 00    	mov    0x1e63f(%rip),%eax        # 21670 <if_stack_ptr>
    3031:	85 c0                	test   %eax,%eax
    3033:	0f 8e 8b 09 00 00    	jle    39c4 <yylex+0xf77>
    3039:	8b 05 31 e6 01 00    	mov    0x1e631(%rip),%eax        # 21670 <if_stack_ptr>
    303f:	83 e8 01             	sub    $0x1,%eax
    3042:	48 98                	cltq
    3044:	48 8d 14 85 00 00 00 	lea    0x0(,%rax,4),%rdx
    304b:	00
    304c:	48 8d 05 8d e4 01 00 	lea    0x1e48d(%rip),%rax        # 214e0 <if_stack>
    3053:	8b 04 02             	mov    (%rdx,%rax,1),%eax
    3056:	83 f8 01             	cmp    $0x1,%eax
    3059:	75 0f                	jne    306a <yylex+0x61d>
    305b:	c7 05 3f e6 01 00 07 	movl   $0x7,0x1e63f(%rip)        # 216a4 <yy_start>
    3062:	00 00 00
    3065:	e9 5a 09 00 00       	jmp    39c4 <yylex+0xf77>
    306a:	8b 05 00 e6 01 00    	mov    0x1e600(%rip),%eax        # 21670 <if_stack_ptr>
    3070:	83 f8 01             	cmp    $0x1,%eax
    3073:	7e 21                	jle    3096 <yylex+0x649>
    3075:	8b 05 f5 e5 01 00    	mov    0x1e5f5(%rip),%eax        # 21670 <if_stack_ptr>
    307b:	83 e8 02             	sub    $0x2,%eax
    307e:	48 98                	cltq
    3080:	48 8d 14 85 00 00 00 	lea    0x0(,%rax,4),%rdx
    3087:	00
    3088:	48 8d 05 51 e4 01 00 	lea    0x1e451(%rip),%rax        # 214e0 <if_stack>
    308f:	8b 04 02             	mov    (%rdx,%rax,1),%eax
    3092:	85 c0                	test   %eax,%eax
    3094:	74 0f                	je     30a5 <yylex+0x658>
    3096:	c7 05 04 e6 01 00 01 	movl   $0x1,0x1e604(%rip)        # 216a4 <yy_start>
    309d:	00 00 00
    30a0:	e9 1f 09 00 00       	jmp    39c4 <yylex+0xf77>
    30a5:	e9 1a 09 00 00       	jmp    39c4 <yylex+0xf77>
    30aa:	8b 05 c0 e5 01 00    	mov    0x1e5c0(%rip),%eax        # 21670 <if_stack_ptr>
    30b0:	85 c0                	test   %eax,%eax
    30b2:	0f 8e 12 09 00 00    	jle    39ca <yylex+0xf7d>
    30b8:	8b 05 b2 e5 01 00    	mov    0x1e5b2(%rip),%eax        # 21670 <if_stack_ptr>
    30be:	83 e8 01             	sub    $0x1,%eax
    30c1:	89 05 a9 e5 01 00    	mov    %eax,0x1e5a9(%rip)        # 21670 <if_stack_ptr>
    30c7:	8b 05 a3 e5 01 00    	mov    0x1e5a3(%rip),%eax        # 21670 <if_stack_ptr>
    30cd:	85 c0                	test   %eax,%eax
    30cf:	74 26                	je     30f7 <yylex+0x6aa>
    30d1:	8b 05 99 e5 01 00    	mov    0x1e599(%rip),%eax        # 21670 <if_stack_ptr>
    30d7:	83 e8 01             	sub    $0x1,%eax
    30da:	48 98                	cltq
    30dc:	48 8d 14 85 00 00 00 	lea    0x0(,%rax,4),%rdx
    30e3:	00
    30e4:	48 8d 05 f5 e3 01 00 	lea    0x1e3f5(%rip),%rax        # 214e0 <if_stack>
    30eb:	8b 04 02             	mov    (%rdx,%rax,1),%eax
    30ee:	83 f8 01             	cmp    $0x1,%eax
    30f1:	0f 85 d3 08 00 00    	jne    39ca <yylex+0xf7d>
    30f7:	c7 05 a3 e5 01 00 01 	movl   $0x1,0x1e5a3(%rip)        # 216a4 <yy_start>
    30fe:	00 00 00
    3101:	e9 c4 08 00 00       	jmp    39ca <yylex+0xf7d>
    3106:	8b 05 64 e5 01 00    	mov    0x1e564(%rip),%eax        # 21670 <if_stack_ptr>
    310c:	83 c0 01             	add    $0x1,%eax
    310f:	89 05 5b e5 01 00    	mov    %eax,0x1e55b(%rip)        # 21670 <if_stack_ptr>
    3115:	e9 c3 08 00 00       	jmp    39dd <yylex+0xf90>
    311a:	8b 05 50 e5 01 00    	mov    0x1e550(%rip),%eax        # 21670 <if_stack_ptr>
    3120:	83 c0 01             	add    $0x1,%eax
    3123:	89 05 47 e5 01 00    	mov    %eax,0x1e547(%rip)        # 21670 <if_stack_ptr>
    3129:	e9 af 08 00 00       	jmp    39dd <yylex+0xf90>
    312e:	8b 05 3c e5 01 00    	mov    0x1e53c(%rip),%eax        # 21670 <if_stack_ptr>
    3134:	85 c0                	test   %eax,%eax
    3136:	0f 8e 94 08 00 00    	jle    39d0 <yylex+0xf83>
    313c:	8b 05 2e e5 01 00    	mov    0x1e52e(%rip),%eax        # 21670 <if_stack_ptr>
    3142:	83 e8 01             	sub    $0x1,%eax
    3145:	48 98                	cltq
    3147:	48 8d 14 85 00 00 00 	lea    0x0(,%rax,4),%rdx
    314e:	00
    314f:	48 8d 05 8a e3 01 00 	lea    0x1e38a(%rip),%rax        # 214e0 <if_stack>
    3156:	8b 04 02             	mov    (%rdx,%rax,1),%eax
    3159:	85 c0                	test   %eax,%eax
    315b:	0f 85 6f 08 00 00    	jne    39d0 <yylex+0xf83>
    3161:	8b 05 09 e5 01 00    	mov    0x1e509(%rip),%eax        # 21670 <if_stack_ptr>
    3167:	83 f8 01             	cmp    $0x1,%eax
    316a:	7e 21                	jle    318d <yylex+0x740>
    316c:	8b 05 fe e4 01 00    	mov    0x1e4fe(%rip),%eax        # 21670 <if_stack_ptr>
    3172:	83 e8 02             	sub    $0x2,%eax
    3175:	48 98                	cltq
    3177:	48 8d 14 85 00 00 00 	lea    0x0(,%rax,4),%rdx
    317e:	00
    317f:	48 8d 05 5a e3 01 00 	lea    0x1e35a(%rip),%rax        # 214e0 <if_stack>
    3186:	8b 04 02             	mov    (%rdx,%rax,1),%eax
    3189:	85 c0                	test   %eax,%eax
    318b:	74 0f                	je     319c <yylex+0x74f>
    318d:	c7 05 0d e5 01 00 01 	movl   $0x1,0x1e50d(%rip)        # 216a4 <yy_start>
    3194:	00 00 00
    3197:	e9 34 08 00 00       	jmp    39d0 <yylex+0xf83>
    319c:	e9 2f 08 00 00       	jmp    39d0 <yylex+0xf83>
    31a1:	8b 05 c9 e4 01 00    	mov    0x1e4c9(%rip),%eax        # 21670 <if_stack_ptr>
    31a7:	85 c0                	test   %eax,%eax
    31a9:	7e 0f                	jle    31ba <yylex+0x76d>
    31ab:	8b 05 bf e4 01 00    	mov    0x1e4bf(%rip),%eax        # 21670 <if_stack_ptr>
    31b1:	83 e8 01             	sub    $0x1,%eax
    31b4:	89 05 b6 e4 01 00    	mov    %eax,0x1e4b6(%rip)        # 21670 <if_stack_ptr>
    31ba:	8b 05 b0 e4 01 00    	mov    0x1e4b0(%rip),%eax        # 21670 <if_stack_ptr>
    31c0:	85 c0                	test   %eax,%eax
    31c2:	74 26                	je     31ea <yylex+0x79d>
    31c4:	8b 05 a6 e4 01 00    	mov    0x1e4a6(%rip),%eax        # 21670 <if_stack_ptr>
    31ca:	83 e8 01             	sub    $0x1,%eax
    31cd:	48 98                	cltq
    31cf:	48 8d 14 85 00 00 00 	lea    0x0(,%rax,4),%rdx
    31d6:	00
    31d7:	48 8d 05 02 e3 01 00 	lea    0x1e302(%rip),%rax        # 214e0 <if_stack>
    31de:	8b 04 02             	mov    (%rdx,%rax,1),%eax
    31e1:	83 f8 01             	cmp    $0x1,%eax
    31e4:	0f 85 ec 07 00 00    	jne    39d6 <yylex+0xf89>
    31ea:	c7 05 b0 e4 01 00 01 	movl   $0x1,0x1e4b0(%rip)        # 216a4 <yy_start>
    31f1:	00 00 00
    31f4:	e9 dd 07 00 00       	jmp    39d6 <yylex+0xf89>
    31f9:	b8 7d 00 00 00       	mov    $0x7d,%eax
    31fe:	e9 df 07 00 00       	jmp    39e2 <yylex+0xf95>
    3203:	c7 85 4c ff ff ff 00 	movl   $0x0,-0xb4(%rbp)
    320a:	00 00 00
    320d:	eb 2f                	jmp    323e <yylex+0x7f1>
    320f:	48 8b 15 aa de 01 00 	mov    0x1deaa(%rip),%rdx        # 210c0 <yytext>
    3216:	8b 85 4c ff ff ff    	mov    -0xb4(%rbp),%eax
    321c:	48 98                	cltq
    321e:	48 01 d0             	add    %rdx,%rax
    3221:	0f b6 00             	movzbl (%rax),%eax
    3224:	3c 0a                	cmp    $0xa,%al
    3226:	75 0f                	jne    3237 <yylex+0x7ea>
    3228:	8b 05 e6 dd 01 00    	mov    0x1dde6(%rip),%eax        # 21014 <line_num>
    322e:	83 c0 01             	add    $0x1,%eax
    3231:	89 05 dd dd 01 00    	mov    %eax,0x1dddd(%rip)        # 21014 <line_num>
    3237:	83 85 4c ff ff ff 01 	addl   $0x1,-0xb4(%rbp)
    323e:	8b 85 4c ff ff ff    	mov    -0xb4(%rbp),%eax
    3244:	48 63 d8             	movslq %eax,%rbx
    3247:	48 8b 05 72 de 01 00 	mov    0x1de72(%rip),%rax        # 210c0 <yytext>
    324e:	48 89 c7             	mov    %rax,%rdi
    3251:	e8 ca f0 ff ff       	call   2320 <strlen@plt>
    3256:	48 39 c3             	cmp    %rax,%rbx
    3259:	72 b4                	jb     320f <yylex+0x7c2>
    325b:	e9 7d 07 00 00       	jmp    39dd <yylex+0xf90>
    3260:	8b 05 ae dd 01 00    	mov    0x1ddae(%rip),%eax        # 21014 <line_num>
    3266:	83 c0 01             	add    $0x1,%eax
    3269:	89 05 a5 dd 01 00    	mov    %eax,0x1dda5(%rip)        # 21014 <line_num>
    326f:	e9 69 07 00 00       	jmp    39dd <yylex+0xf90>
    3274:	b8 22 01 00 00       	mov    $0x122,%eax
    3279:	e9 64 07 00 00       	jmp    39e2 <yylex+0xf95>
    327e:	b8 02 01 00 00       	mov    $0x102,%eax
    3283:	e9 5a 07 00 00       	jmp    39e2 <yylex+0xf95>
    3288:	b8 04 01 00 00       	mov    $0x104,%eax
    328d:	e9 50 07 00 00       	jmp    39e2 <yylex+0xf95>
    3292:	b8 05 01 00 00       	mov    $0x105,%eax
    3297:	e9 46 07 00 00       	jmp    39e2 <yylex+0xf95>
    329c:	b8 06 01 00 00       	mov    $0x106,%eax
    32a1:	e9 3c 07 00 00       	jmp    39e2 <yylex+0xf95>
    32a6:	b8 07 01 00 00       	mov    $0x107,%eax
    32ab:	e9 32 07 00 00       	jmp    39e2 <yylex+0xf95>
    32b0:	c6 05 29 de 01 00 00 	movb   $0x0,0x1de29(%rip)        # 210e0 <asm_buffer>
    32b7:	c7 05 e3 e3 01 00 03 	movl   $0x3,0x1e3e3(%rip)        # 216a4 <yy_start>
    32be:	00 00 00
    32c1:	b8 13 01 00 00       	mov    $0x113,%eax
    32c6:	e9 17 07 00 00       	jmp    39e2 <yylex+0xf95>
    32cb:	48 8d 05 0e de 01 00 	lea    0x1de0e(%rip),%rax        # 210e0 <asm_buffer>
    32d2:	48 89 c7             	mov    %rax,%rdi
    32d5:	e8 c6 f1 ff ff       	call   24a0 <strdup@plt>
    32da:	48 89 05 ff e3 01 00 	mov    %rax,0x1e3ff(%rip)        # 216e0 <yylval>
    32e1:	c7 05 b9 e3 01 00 01 	movl   $0x1,0x1e3b9(%rip)        # 216a4 <yy_start>
    32e8:	00 00 00
    32eb:	b8 0e 01 00 00       	mov    $0x10e,%eax
    32f0:	e9 ed 06 00 00       	jmp    39e2 <yylex+0xf95>
    32f5:	48 8d 05 e4 dd 01 00 	lea    0x1dde4(%rip),%rax        # 210e0 <asm_buffer>
    32fc:	48 89 c7             	mov    %rax,%rdi
    32ff:	e8 1c f0 ff ff       	call   2320 <strlen@plt>
    3304:	48 89 c3             	mov    %rax,%rbx
    3307:	48 8b 05 b2 dd 01 00 	mov    0x1ddb2(%rip),%rax        # 210c0 <yytext>
    330e:	48 89 c7             	mov    %rax,%rdi
    3311:	e8 0a f0 ff ff       	call   2320 <strlen@plt>
    3316:	48 01 d8             	add    %rbx,%rax
    3319:	48 3d ff 03 00 00    	cmp    $0x3ff,%rax
    331f:	77 1e                	ja     333f <yylex+0x8f2>
    3321:	48 8b 05 98 dd 01 00 	mov    0x1dd98(%rip),%rax        # 210c0 <yytext>
    3328:	48 89 c6             	mov    %rax,%rsi
    332b:	48 8d 05 ae dd 01 00 	lea    0x1ddae(%rip),%rax        # 210e0 <asm_buffer>
    3332:	48 89 c7             	mov    %rax,%rdi
    3335:	e8 26 f1 ff ff       	call   2460 <strcat@plt>
    333a:	e9 9e 06 00 00       	jmp    39dd <yylex+0xf90>
    333f:	48 8b 05 1a dd 01 00 	mov    0x1dd1a(%rip),%rax        # 21060 <stderr@GLIBC_2.2.5>
    3346:	48 89 c1             	mov    %rax,%rcx
    3349:	ba 14 00 00 00       	mov    $0x14,%edx
    334e:	be 01 00 00 00       	mov    $0x1,%esi
    3353:	48 8d 05 0f 4a 01 00 	lea    0x14a0f(%rip),%rax        # 17d69 <yy_chk+0x2a9>
    335a:	48 89 c7             	mov    %rax,%rdi
    335d:	e8 2e f1 ff ff       	call   2490 <fwrite@plt>
    3362:	bf 01 00 00 00       	mov    $0x1,%edi
    3367:	e8 14 f1 ff ff       	call   2480 <exit@plt>
    336c:	b8 12 01 00 00       	mov    $0x112,%eax
    3371:	e9 6c 06 00 00       	jmp    39e2 <yylex+0xf95>
    3376:	b8 14 01 00 00       	mov    $0x114,%eax
    337b:	e9 62 06 00 00       	jmp    39e2 <yylex+0xf95>
    3380:	b8 10 01 00 00       	mov    $0x110,%eax
    3385:	e9 58 06 00 00       	jmp    39e2 <yylex+0xf95>
    338a:	b8 03 01 00 00       	mov    $0x103,%eax
    338f:	e9 4e 06 00 00       	jmp    39e2 <yylex+0xf95>
    3394:	b8 11 01 00 00       	mov    $0x111,%eax
    3399:	e9 44 06 00 00       	jmp    39e2 <yylex+0xf95>
    339e:	b8 18 01 00 00       	mov    $0x118,%eax
    33a3:	e9 3a 06 00 00       	jmp    39e2 <yylex+0xf95>
    33a8:	b8 17 01 00 00       	mov    $0x117,%eax
    33ad:	e9 30 06 00 00       	jmp    39e2 <yylex+0xf95>
    33b2:	b8 19 01 00 00       	mov    $0x119,%eax
    33b7:	e9 26 06 00 00       	jmp    39e2 <yylex+0xf95>
    33bc:	b8 1a 01 00 00       	mov    $0x11a,%eax
    33c1:	e9 1c 06 00 00       	jmp    39e2 <yylex+0xf95>
    33c6:	b8 1b 01 00 00       	mov    $0x11b,%eax
    33cb:	e9 12 06 00 00       	jmp    39e2 <yylex+0xf95>
    33d0:	b8 1f 01 00 00       	mov    $0x11f,%eax
    33d5:	e9 08 06 00 00       	jmp    39e2 <yylex+0xf95>
    33da:	b8 20 01 00 00       	mov    $0x120,%eax
    33df:	e9 fe 05 00 00       	jmp    39e2 <yylex+0xf95>
    33e4:	b8 1d 01 00 00       	mov    $0x11d,%eax
    33e9:	e9 f4 05 00 00       	jmp    39e2 <yylex+0xf95>
    33ee:	b8 1c 01 00 00       	mov    $0x11c,%eax
    33f3:	e9 ea 05 00 00       	jmp    39e2 <yylex+0xf95>
    33f8:	b8 21 01 00 00       	mov    $0x121,%eax
    33fd:	e9 e0 05 00 00       	jmp    39e2 <yylex+0xf95>
    3402:	b8 23 01 00 00       	mov    $0x123,%eax
    3407:	e9 d6 05 00 00       	jmp    39e2 <yylex+0xf95>
    340c:	c7 05 ca e2 01 00 29 	movl   $0x129,0x1e2ca(%rip)        # 216e0 <yylval>
    3413:	01 00 00
    3416:	b8 24 01 00 00       	mov    $0x124,%eax
    341b:	e9 c2 05 00 00       	jmp    39e2 <yylex+0xf95>
    3420:	c7 05 b6 e2 01 00 2a 	movl   $0x12a,0x1e2b6(%rip)        # 216e0 <yylval>
    3427:	01 00 00
    342a:	b8 24 01 00 00       	mov    $0x124,%eax
    342f:	e9 ae 05 00 00       	jmp    39e2 <yylex+0xf95>
    3434:	c7 05 a2 e2 01 00 27 	movl   $0x127,0x1e2a2(%rip)        # 216e0 <yylval>
    343b:	01 00 00
    343e:	b8 24 01 00 00       	mov    $0x124,%eax
    3443:	e9 9a 05 00 00       	jmp    39e2 <yylex+0xf95>
    3448:	c7 05 8e e2 01 00 28 	movl   $0x128,0x1e28e(%rip)        # 216e0 <yylval>
    344f:	01 00 00
    3452:	b8 24 01 00 00       	mov    $0x124,%eax
    3457:	e9 86 05 00 00       	jmp    39e2 <yylex+0xf95>
    345c:	c7 05 7a e2 01 00 25 	movl   $0x125,0x1e27a(%rip)        # 216e0 <yylval>
    3463:	01 00 00
    3466:	b8 24 01 00 00       	mov    $0x124,%eax
    346b:	e9 72 05 00 00       	jmp    39e2 <yylex+0xf95>
    3470:	c7 05 66 e2 01 00 26 	movl   $0x126,0x1e266(%rip)        # 216e0 <yylval>
    3477:	01 00 00
    347a:	b8 24 01 00 00       	mov    $0x124,%eax
    347f:	e9 5e 05 00 00       	jmp    39e2 <yylex+0xf95>
    3484:	b8 32 01 00 00       	mov    $0x132,%eax
    3489:	e9 54 05 00 00       	jmp    39e2 <yylex+0xf95>
    348e:	b8 2e 01 00 00       	mov    $0x12e,%eax
    3493:	e9 4a 05 00 00       	jmp    39e2 <yylex+0xf95>
    3498:	c7 05 3e e2 01 00 30 	movl   $0x130,0x1e23e(%rip)        # 216e0 <yylval>
    349f:	01 00 00
    34a2:	b8 2f 01 00 00       	mov    $0x12f,%eax
    34a7:	e9 36 05 00 00       	jmp    39e2 <yylex+0xf95>
    34ac:	c7 05 2a e2 01 00 31 	movl   $0x131,0x1e22a(%rip)        # 216e0 <yylval>
    34b3:	01 00 00
    34b6:	b8 2f 01 00 00       	mov    $0x12f,%eax
    34bb:	e9 22 05 00 00       	jmp    39e2 <yylex+0xf95>
    34c0:	c7 05 16 e2 01 00 2c 	movl   $0x12c,0x1e216(%rip)        # 216e0 <yylval>
    34c7:	01 00 00
    34ca:	b8 2b 01 00 00       	mov    $0x12b,%eax
    34cf:	e9 0e 05 00 00       	jmp    39e2 <yylex+0xf95>
    34d4:	c7 05 02 e2 01 00 2d 	movl   $0x12d,0x1e202(%rip)        # 216e0 <yylval>
    34db:	01 00 00
    34de:	b8 2b 01 00 00       	mov    $0x12b,%eax
    34e3:	e9 fa 04 00 00       	jmp    39e2 <yylex+0xf95>
    34e8:	b8 0a 01 00 00       	mov    $0x10a,%eax
    34ed:	e9 f0 04 00 00       	jmp    39e2 <yylex+0xf95>
    34f2:	b8 0b 01 00 00       	mov    $0x10b,%eax
    34f7:	e9 e6 04 00 00       	jmp    39e2 <yylex+0xf95>
    34fc:	b8 0c 01 00 00       	mov    $0x10c,%eax
    3501:	e9 dc 04 00 00       	jmp    39e2 <yylex+0xf95>
    3506:	48 8b 05 b3 db 01 00 	mov    0x1dbb3(%rip),%rax        # 210c0 <yytext>
    350d:	48 89 c7             	mov    %rax,%rdi
    3510:	e8 3b ef ff ff       	call   2450 <atoi@plt>
    3515:	89 05 c5 e1 01 00    	mov    %eax,0x1e1c5(%rip)        # 216e0 <yylval>
    351b:	b8 08 01 00 00       	mov    $0x108,%eax
    3520:	e9 bd 04 00 00       	jmp    39e2 <yylex+0xf95>
    3525:	48 8b 05 94 db 01 00 	mov    0x1db94(%rip),%rax        # 210c0 <yytext>
    352c:	48 89 c7             	mov    %rax,%rdi
    352f:	e8 cc ed ff ff       	call   2300 <atof@plt>
    3534:	f2 0f 5a c0          	cvtsd2ss %xmm0,%xmm0
    3538:	f3 0f 11 05 a0 e1 01 	movss  %xmm0,0x1e1a0(%rip)        # 216e0 <yylval>
    353f:	00
    3540:	b8 09 01 00 00       	mov    $0x109,%eax
    3545:	e9 98 04 00 00       	jmp    39e2 <yylex+0xf95>
    354a:	48 8b 05 6f db 01 00 	mov    0x1db6f(%rip),%rax        # 210c0 <yytext>
    3551:	48 89 c7             	mov    %rax,%rdi
    3554:	e8 47 ef ff ff       	call   24a0 <strdup@plt>
    3559:	48 89 05 80 e1 01 00 	mov    %rax,0x1e180(%rip)        # 216e0 <yylval>
    3560:	b8 0f 01 00 00       	mov    $0x10f,%eax
    3565:	e9 78 04 00 00       	jmp    39e2 <yylex+0xf95>
    356a:	48 8b 05 4f db 01 00 	mov    0x1db4f(%rip),%rax        # 210c0 <yytext>
    3571:	48 83 c0 01          	add    $0x1,%rax
    3575:	48 89 c7             	mov    %rax,%rdi
    3578:	e8 23 ef ff ff       	call   24a0 <strdup@plt>
    357d:	48 89 85 78 ff ff ff 	mov    %rax,-0x88(%rbp)
    3584:	48 8b 85 78 ff ff ff 	mov    -0x88(%rbp),%rax
    358b:	48 89 c7             	mov    %rax,%rdi
    358e:	e8 8d ed ff ff       	call   2320 <strlen@plt>
    3593:	48 8d 50 ff          	lea    -0x1(%rax),%rdx
    3597:	48 8b 85 78 ff ff ff 	mov    -0x88(%rbp),%rax
    359e:	48 01 d0             	add    %rdx,%rax
    35a1:	c6 00 00             	movb   $0x0,(%rax)
    35a4:	48 8b 85 78 ff ff ff 	mov    -0x88(%rbp),%rax
    35ab:	48 89 85 68 ff ff ff 	mov    %rax,-0x98(%rbp)
    35b2:	48 8b 85 78 ff ff ff 	mov    -0x88(%rbp),%rax
    35b9:	48 89 85 70 ff ff ff 	mov    %rax,-0x90(%rbp)
    35c0:	e9 f5 00 00 00       	jmp    36ba <yylex+0xc6d>
    35c5:	48 8b 85 68 ff ff ff 	mov    -0x98(%rbp),%rax
    35cc:	0f b6 00             	movzbl (%rax),%eax
    35cf:	3c 5c                	cmp    $0x5c,%al
    35d1:	0f 85 ba 00 00 00    	jne    3691 <yylex+0xc44>
    35d7:	48 83 85 68 ff ff ff 	addq   $0x1,-0x98(%rbp)
    35de:	01
    35df:	48 8b 85 68 ff ff ff 	mov    -0x98(%rbp),%rax
    35e6:	0f b6 00             	movzbl (%rax),%eax
    35e9:	0f be c0             	movsbl %al,%eax
    35ec:	83 f8 74             	cmp    $0x74,%eax
    35ef:	74 32                	je     3623 <yylex+0xbd6>
    35f1:	83 f8 74             	cmp    $0x74,%eax
    35f4:	7f 72                	jg     3668 <yylex+0xc1b>
    35f6:	83 f8 6e             	cmp    $0x6e,%eax
    35f9:	74 11                	je     360c <yylex+0xbbf>
    35fb:	83 f8 6e             	cmp    $0x6e,%eax
    35fe:	7f 68                	jg     3668 <yylex+0xc1b>
    3600:	83 f8 22             	cmp    $0x22,%eax
    3603:	74 4c                	je     3651 <yylex+0xc04>
    3605:	83 f8 5c             	cmp    $0x5c,%eax
    3608:	74 30                	je     363a <yylex+0xbed>
    360a:	eb 5c                	jmp    3668 <yylex+0xc1b>
    360c:	48 8b 85 70 ff ff ff 	mov    -0x90(%rbp),%rax
    3613:	48 8d 50 01          	lea    0x1(%rax),%rdx
    3617:	48 89 95 70 ff ff ff 	mov    %rdx,-0x90(%rbp)
    361e:	c6 00 0a             	movb   $0xa,(%rax)
    3621:	eb 64                	jmp    3687 <yylex+0xc3a>
    3623:	48 8b 85 70 ff ff ff 	mov    -0x90(%rbp),%rax
    362a:	48 8d 50 01          	lea    0x1(%rax),%rdx
    362e:	48 89 95 70 ff ff ff 	mov    %rdx,-0x90(%rbp)
    3635:	c6 00 09             	movb   $0x9,(%rax)
    3638:	eb 4d                	jmp    3687 <yylex+0xc3a>
    363a:	48 8b 85 70 ff ff ff 	mov    -0x90(%rbp),%rax
    3641:	48 8d 50 01          	lea    0x1(%rax),%rdx
    3645:	48 89 95 70 ff ff ff 	mov    %rdx,-0x90(%rbp)
    364c:	c6 00 5c             	movb   $0x5c,(%rax)
    364f:	eb 36                	jmp    3687 <yylex+0xc3a>
    3651:	48 8b 85 70 ff ff ff 	mov    -0x90(%rbp),%rax
    3658:	48 8d 50 01          	lea    0x1(%rax),%rdx
    365c:	48 89 95 70 ff ff ff 	mov    %rdx,-0x90(%rbp)
    3663:	c6 00 22             	movb   $0x22,(%rax)
    3666:	eb 1f                	jmp    3687 <yylex+0xc3a>
    3668:	48 8b 85 70 ff ff ff 	mov    -0x90(%rbp),%rax
    366f:	48 8d 50 01          	lea    0x1(%rax),%rdx
    3673:	48 89 95 70 ff ff ff 	mov    %rdx,-0x90(%rbp)
    367a:	48 8b 95 68 ff ff ff 	mov    -0x98(%rbp),%rdx
    3681:	0f b6 12             	movzbl (%rdx),%edx
    3684:	88 10                	mov    %dl,(%rax)
    3686:	90                   	nop
    3687:	48 83 85 68 ff ff ff 	addq   $0x1,-0x98(%rbp)
    368e:	01
    368f:	eb 29                	jmp    36ba <yylex+0xc6d>
    3691:	48 8b 95 68 ff ff ff 	mov    -0x98(%rbp),%rdx
    3698:	48 8d 42 01          	lea    0x1(%rdx),%rax
    369c:	48 89 85 68 ff ff ff 	mov    %rax,-0x98(%rbp)
    36a3:	48 8b 85 70 ff ff ff 	mov    -0x90(%rbp),%rax
    36aa:	48 8d 48 01          	lea    0x1(%rax),%rcx
    36ae:	48 89 8d 70 ff ff ff 	mov    %rcx,-0x90(%rbp)
    36b5:	0f b6 12             	movzbl (%rdx),%edx
    36b8:	88 10                	mov    %dl,(%rax)
    36ba:	48 8b 85 68 ff ff ff 	mov    -0x98(%rbp),%rax
    36c1:	0f b6 00             	movzbl (%rax),%eax
    36c4:	84 c0                	test   %al,%al
    36c6:	0f 85 f9 fe ff ff    	jne    35c5 <yylex+0xb78>
    36cc:	48 8b 85 70 ff ff ff 	mov    -0x90(%rbp),%rax
    36d3:	c6 00 00             	movb   $0x0,(%rax)
    36d6:	48 8b 85 78 ff ff ff 	mov    -0x88(%rbp),%rax
    36dd:	48 89 05 fc df 01 00 	mov    %rax,0x1dffc(%rip)        # 216e0 <yylval>
    36e4:	b8 0d 01 00 00       	mov    $0x10d,%eax
    36e9:	e9 f4 02 00 00       	jmp    39e2 <yylex+0xf95>
    36ee:	48 8b 05 cb d9 01 00 	mov    0x1d9cb(%rip),%rax        # 210c0 <yytext>
    36f5:	0f b6 00             	movzbl (%rax),%eax
    36f8:	0f be c0             	movsbl %al,%eax
    36fb:	e9 e2 02 00 00       	jmp    39e2 <yylex+0xf95>
    3700:	48 8b 15 a9 d9 01 00 	mov    0x1d9a9(%rip),%rdx        # 210b0 <yyout>
    3707:	8b 05 93 d9 01 00    	mov    0x1d993(%rip),%eax        # 210a0 <yyleng>
    370d:	48 63 f0             	movslq %eax,%rsi
    3710:	48 8b 05 a9 d9 01 00 	mov    0x1d9a9(%rip),%rax        # 210c0 <yytext>
    3717:	48 89 d1             	mov    %rdx,%rcx
    371a:	ba 01 00 00 00       	mov    $0x1,%edx
    371f:	48 89 c7             	mov    %rax,%rdi
    3722:	e8 69 ed ff ff       	call   2490 <fwrite@plt>
    3727:	e9 b1 02 00 00       	jmp    39dd <yylex+0xf90>
    372c:	48 8b 05 8d d9 01 00 	mov    0x1d98d(%rip),%rax        # 210c0 <yytext>
    3733:	48 8b 95 58 ff ff ff 	mov    -0xa8(%rbp),%rdx
    373a:	48 29 c2             	sub    %rax,%rdx
    373d:	89 d0                	mov    %edx,%eax
    373f:	83 e8 01             	sub    $0x1,%eax
    3742:	89 85 50 ff ff ff    	mov    %eax,-0xb0(%rbp)
    3748:	0f b6 15 41 df 01 00 	movzbl 0x1df41(%rip),%edx        # 21690 <yy_hold_char>
    374f:	48 8b 85 58 ff ff ff 	mov    -0xa8(%rbp),%rax
    3756:	88 10                	mov    %dl,(%rax)
    3758:	48 8b 05 29 df 01 00 	mov    0x1df29(%rip),%rax        # 21688 <yy_buffer_stack>
    375f:	48 8b 15 12 df 01 00 	mov    0x1df12(%rip),%rdx        # 21678 <yy_buffer_stack_top>
    3766:	48 c1 e2 03          	shl    $0x3,%rdx
    376a:	48 01 d0             	add    %rdx,%rax
    376d:	48 8b 00             	mov    (%rax),%rax
    3770:	8b 40 38             	mov    0x38(%rax),%eax
    3773:	85 c0                	test   %eax,%eax
    3775:	75 62                	jne    37d9 <yylex+0xd8c>
    3777:	48 8b 05 0a df 01 00 	mov    0x1df0a(%rip),%rax        # 21688 <yy_buffer_stack>
    377e:	48 8b 15 f3 de 01 00 	mov    0x1def3(%rip),%rdx        # 21678 <yy_buffer_stack_top>
    3785:	48 c1 e2 03          	shl    $0x3,%rdx
    3789:	48 01 d0             	add    %rdx,%rax
    378c:	48 8b 00             	mov    (%rax),%rax
    378f:	8b 40 1c             	mov    0x1c(%rax),%eax
    3792:	89 05 fc de 01 00    	mov    %eax,0x1defc(%rip)        # 21694 <yy_n_chars>
    3798:	48 8b 05 e9 de 01 00 	mov    0x1dee9(%rip),%rax        # 21688 <yy_buffer_stack>
    379f:	48 8b 15 d2 de 01 00 	mov    0x1ded2(%rip),%rdx        # 21678 <yy_buffer_stack_top>
    37a6:	48 c1 e2 03          	shl    $0x3,%rdx
    37aa:	48 01 d0             	add    %rdx,%rax
    37ad:	48 8b 00             	mov    (%rax),%rax
    37b0:	48 8b 15 f1 d8 01 00 	mov    0x1d8f1(%rip),%rdx        # 210a8 <yyin>
    37b7:	48 89 10             	mov    %rdx,(%rax)
    37ba:	48 8b 05 c7 de 01 00 	mov    0x1dec7(%rip),%rax        # 21688 <yy_buffer_stack>
    37c1:	48 8b 15 b0 de 01 00 	mov    0x1deb0(%rip),%rdx        # 21678 <yy_buffer_stack_top>
    37c8:	48 c1 e2 03          	shl    $0x3,%rdx
    37cc:	48 01 d0             	add    %rdx,%rax
    37cf:	48 8b 00             	mov    (%rax),%rax
    37d2:	c7 40 38 01 00 00 00 	movl   $0x1,0x38(%rax)
    37d9:	48 8b 05 a8 de 01 00 	mov    0x1dea8(%rip),%rax        # 21688 <yy_buffer_stack>
    37e0:	48 8b 15 91 de 01 00 	mov    0x1de91(%rip),%rdx        # 21678 <yy_buffer_stack_top>
    37e7:	48 c1 e2 03          	shl    $0x3,%rdx
    37eb:	48 01 d0             	add    %rdx,%rax
    37ee:	48 8b 00             	mov    (%rax),%rax
    37f1:	48 8b 50 08          	mov    0x8(%rax),%rdx
    37f5:	8b 05 99 de 01 00    	mov    0x1de99(%rip),%eax        # 21694 <yy_n_chars>
    37fb:	48 98                	cltq
    37fd:	48 01 c2             	add    %rax,%rdx
    3800:	48 8b 05 91 de 01 00 	mov    0x1de91(%rip),%rax        # 21698 <yy_c_buf_p>
    3807:	48 39 c2             	cmp    %rax,%rdx
    380a:	0f 82 92 00 00 00    	jb     38a2 <yylex+0xe55>
    3810:	48 8b 15 a9 d8 01 00 	mov    0x1d8a9(%rip),%rdx        # 210c0 <yytext>
    3817:	8b 85 50 ff ff ff    	mov    -0xb0(%rbp),%eax
    381d:	48 98                	cltq
    381f:	48 01 d0             	add    %rdx,%rax
    3822:	48 89 05 6f de 01 00 	mov    %rax,0x1de6f(%rip)        # 21698 <yy_c_buf_p>
    3829:	e8 23 08 00 00       	call   4051 <yy_get_previous_state>
    382e:	89 85 44 ff ff ff    	mov    %eax,-0xbc(%rbp)
    3834:	8b 85 44 ff ff ff    	mov    -0xbc(%rbp),%eax
    383a:	89 c7                	mov    %eax,%edi
    383c:	e8 42 09 00 00       	call   4183 <yy_try_NUL_trans>
    3841:	89 85 54 ff ff ff    	mov    %eax,-0xac(%rbp)
    3847:	48 8b 05 72 d8 01 00 	mov    0x1d872(%rip),%rax        # 210c0 <yytext>
    384e:	48 89 85 60 ff ff ff 	mov    %rax,-0xa0(%rbp)
    3855:	83 bd 54 ff ff ff 00 	cmpl   $0x0,-0xac(%rbp)
    385c:	74 31                	je     388f <yylex+0xe42>
    385e:	48 8b 05 33 de 01 00 	mov    0x1de33(%rip),%rax        # 21698 <yy_c_buf_p>
    3865:	48 83 c0 01          	add    $0x1,%rax
    3869:	48 89 05 28 de 01 00 	mov    %rax,0x1de28(%rip)        # 21698 <yy_c_buf_p>
    3870:	48 8b 05 21 de 01 00 	mov    0x1de21(%rip),%rax        # 21698 <yy_c_buf_p>
    3877:	48 89 85 58 ff ff ff 	mov    %rax,-0xa8(%rbp)
    387e:	8b 85 54 ff ff ff    	mov    -0xac(%rbp),%eax
    3884:	89 85 44 ff ff ff    	mov    %eax,-0xbc(%rbp)
    388a:	e9 d5 f2 ff ff       	jmp    2b64 <yylex+0x117>
    388f:	48 8b 05 02 de 01 00 	mov    0x1de02(%rip),%rax        # 21698 <yy_c_buf_p>
    3896:	48 89 85 58 ff ff ff 	mov    %rax,-0xa8(%rbp)
    389d:	e9 04 f4 ff ff       	jmp    2ca6 <yylex+0x259>
    38a2:	e8 55 01 00 00       	call   39fc <yy_get_next_buffer>
    38a7:	83 f8 02             	cmp    $0x2,%eax
    38aa:	0f 84 93 00 00 00    	je     3943 <yylex+0xef6>
    38b0:	83 f8 02             	cmp    $0x2,%eax
    38b3:	0f 8f 23 01 00 00    	jg     39dc <yylex+0xf8f>
    38b9:	85 c0                	test   %eax,%eax
    38bb:	74 41                	je     38fe <yylex+0xeb1>
    38bd:	83 f8 01             	cmp    $0x1,%eax
    38c0:	0f 85 16 01 00 00    	jne    39dc <yylex+0xf8f>
    38c6:	c7 05 d8 dd 01 00 00 	movl   $0x0,0x1ddd8(%rip)        # 216a8 <yy_did_buffer_switch_on_eof>
    38cd:	00 00 00
    38d0:	48 8b 05 e9 d7 01 00 	mov    0x1d7e9(%rip),%rax        # 210c0 <yytext>
    38d7:	48 89 05 ba dd 01 00 	mov    %rax,0x1ddba(%rip)        # 21698 <yy_c_buf_p>
    38de:	8b 05 c0 dd 01 00    	mov    0x1ddc0(%rip),%eax        # 216a4 <yy_start>
    38e4:	83 e8 01             	sub    $0x1,%eax
    38e7:	89 c2                	mov    %eax,%edx
    38e9:	c1 ea 1f             	shr    $0x1f,%edx
    38ec:	01 d0                	add    %edx,%eax
    38ee:	d1 f8                	sar    $1,%eax
    38f0:	83 c0 3f             	add    $0x3f,%eax
    38f3:	89 85 48 ff ff ff    	mov    %eax,-0xb8(%rbp)
    38f9:	e9 51 f4 ff ff       	jmp    2d4f <yylex+0x302>
    38fe:	48 8b 15 bb d7 01 00 	mov    0x1d7bb(%rip),%rdx        # 210c0 <yytext>
    3905:	8b 85 50 ff ff ff    	mov    -0xb0(%rbp),%eax
    390b:	48 98                	cltq
    390d:	48 01 d0             	add    %rdx,%rax
    3910:	48 89 05 81 dd 01 00 	mov    %rax,0x1dd81(%rip)        # 21698 <yy_c_buf_p>
    3917:	e8 35 07 00 00       	call   4051 <yy_get_previous_state>
    391c:	89 85 44 ff ff ff    	mov    %eax,-0xbc(%rbp)
    3922:	48 8b 05 6f dd 01 00 	mov    0x1dd6f(%rip),%rax        # 21698 <yy_c_buf_p>
    3929:	48 89 85 58 ff ff ff 	mov    %rax,-0xa8(%rbp)
    3930:	48 8b 05 89 d7 01 00 	mov    0x1d789(%rip),%rax        # 210c0 <yytext>
    3937:	48 89 85 60 ff ff ff 	mov    %rax,-0xa0(%rbp)
    393e:	e9 21 f2 ff ff       	jmp    2b64 <yylex+0x117>
    3943:	48 8b 05 3e dd 01 00 	mov    0x1dd3e(%rip),%rax        # 21688 <yy_buffer_stack>
    394a:	48 8b 15 27 dd 01 00 	mov    0x1dd27(%rip),%rdx        # 21678 <yy_buffer_stack_top>
    3951:	48 c1 e2 03          	shl    $0x3,%rdx
    3955:	48 01 d0             	add    %rdx,%rax
    3958:	48 8b 00             	mov    (%rax),%rax
    395b:	48 8b 50 08          	mov    0x8(%rax),%rdx
    395f:	8b 05 2f dd 01 00    	mov    0x1dd2f(%rip),%eax        # 21694 <yy_n_chars>
    3965:	48 98                	cltq
    3967:	48 01 d0             	add    %rdx,%rax
    396a:	48 89 05 27 dd 01 00 	mov    %rax,0x1dd27(%rip)        # 21698 <yy_c_buf_p>
    3971:	e8 db 06 00 00       	call   4051 <yy_get_previous_state>
    3976:	89 85 44 ff ff ff    	mov    %eax,-0xbc(%rbp)
    397c:	48 8b 05 15 dd 01 00 	mov    0x1dd15(%rip),%rax        # 21698 <yy_c_buf_p>
    3983:	48 89 85 58 ff ff ff 	mov    %rax,-0xa8(%rbp)
    398a:	48 8b 05 2f d7 01 00 	mov    0x1d72f(%rip),%rax        # 210c0 <yytext>
    3991:	48 89 85 60 ff ff ff 	mov    %rax,-0xa0(%rbp)
    3998:	e9 09 f3 ff ff       	jmp    2ca6 <yylex+0x259>
    399d:	48 8d 05 dc 43 01 00 	lea    0x143dc(%rip),%rax        # 17d80 <yy_chk+0x2c0>
    39a4:	48 89 c7             	mov    %rax,%rdi
    39a7:	e8 c9 15 00 00       	call   4f75 <yy_fatal_error>
    39ac:	90                   	nop
    39ad:	e9 7a f1 ff ff       	jmp    2b2c <yylex+0xdf>
    39b2:	90                   	nop
    39b3:	e9 74 f1 ff ff       	jmp    2b2c <yylex+0xdf>
    39b8:	90                   	nop
    39b9:	e9 6e f1 ff ff       	jmp    2b2c <yylex+0xdf>
    39be:	90                   	nop
    39bf:	e9 68 f1 ff ff       	jmp    2b2c <yylex+0xdf>
    39c4:	90                   	nop
    39c5:	e9 62 f1 ff ff       	jmp    2b2c <yylex+0xdf>
    39ca:	90                   	nop
    39cb:	e9 5c f1 ff ff       	jmp    2b2c <yylex+0xdf>
    39d0:	90                   	nop
    39d1:	e9 56 f1 ff ff       	jmp    2b2c <yylex+0xdf>
    39d6:	90                   	nop
    39d7:	e9 50 f1 ff ff       	jmp    2b2c <yylex+0xdf>
    39dc:	90                   	nop
    39dd:	e9 4a f1 ff ff       	jmp    2b2c <yylex+0xdf>
    39e2:	48 8b 55 e8          	mov    -0x18(%rbp),%rdx
    39e6:	64 48 2b 14 25 28 00 	sub    %fs:0x28,%rdx
    39ed:	00 00
    39ef:	74 05                	je     39f6 <yylex+0xfa9>
    39f1:	e8 3a e9 ff ff       	call   2330 <__stack_chk_fail@plt>
    39f6:	48 8b 5d f8          	mov    -0x8(%rbp),%rbx
    39fa:	c9                   	leave
    39fb:	c3                   	ret

00000000000039fc <yy_get_next_buffer>:
    39fc:	f3 0f 1e fa          	endbr64
    3a00:	55                   	push   %rbp
    3a01:	48 89 e5             	mov    %rsp,%rbp
    3a04:	53                   	push   %rbx
    3a05:	48 83 ec 48          	sub    $0x48,%rsp
    3a09:	48 8b 05 78 dc 01 00 	mov    0x1dc78(%rip),%rax        # 21688 <yy_buffer_stack>
    3a10:	48 8b 15 61 dc 01 00 	mov    0x1dc61(%rip),%rdx        # 21678 <yy_buffer_stack_top>
    3a17:	48 c1 e2 03          	shl    $0x3,%rdx
    3a1b:	48 01 d0             	add    %rdx,%rax
    3a1e:	48 8b 00             	mov    (%rax),%rax
    3a21:	48 8b 40 08          	mov    0x8(%rax),%rax
    3a25:	48 89 45 d8          	mov    %rax,-0x28(%rbp)
    3a29:	48 8b 05 90 d6 01 00 	mov    0x1d690(%rip),%rax        # 210c0 <yytext>
    3a30:	48 89 45 e0          	mov    %rax,-0x20(%rbp)
    3a34:	48 8b 05 4d dc 01 00 	mov    0x1dc4d(%rip),%rax        # 21688 <yy_buffer_stack>
    3a3b:	48 8b 15 36 dc 01 00 	mov    0x1dc36(%rip),%rdx        # 21678 <yy_buffer_stack_top>
    3a42:	48 c1 e2 03          	shl    $0x3,%rdx
    3a46:	48 01 d0             	add    %rdx,%rax
    3a49:	48 8b 00             	mov    (%rax),%rax
    3a4c:	48 8b 40 08          	mov    0x8(%rax),%rax
    3a50:	8b 15 3e dc 01 00    	mov    0x1dc3e(%rip),%edx        # 21694 <yy_n_chars>
    3a56:	48 63 d2             	movslq %edx,%rdx
    3a59:	48 83 c2 01          	add    $0x1,%rdx
    3a5d:	48 01 c2             	add    %rax,%rdx
    3a60:	48 8b 05 31 dc 01 00 	mov    0x1dc31(%rip),%rax        # 21698 <yy_c_buf_p>
    3a67:	48 39 c2             	cmp    %rax,%rdx
    3a6a:	73 0f                	jae    3a7b <yy_get_next_buffer+0x7f>
    3a6c:	48 8d 05 4d 44 01 00 	lea    0x1444d(%rip),%rax        # 17ec0 <yy_chk+0x400>
    3a73:	48 89 c7             	mov    %rax,%rdi
    3a76:	e8 fa 14 00 00       	call   4f75 <yy_fatal_error>
    3a7b:	48 8b 05 06 dc 01 00 	mov    0x1dc06(%rip),%rax        # 21688 <yy_buffer_stack>
    3a82:	48 8b 15 ef db 01 00 	mov    0x1dbef(%rip),%rdx        # 21678 <yy_buffer_stack_top>
    3a89:	48 c1 e2 03          	shl    $0x3,%rdx
    3a8d:	48 01 d0             	add    %rdx,%rax
    3a90:	48 8b 00             	mov    (%rax),%rax
    3a93:	8b 40 34             	mov    0x34(%rax),%eax
    3a96:	85 c0                	test   %eax,%eax
    3a98:	75 2b                	jne    3ac5 <yy_get_next_buffer+0xc9>
    3a9a:	48 8b 15 f7 db 01 00 	mov    0x1dbf7(%rip),%rdx        # 21698 <yy_c_buf_p>
    3aa1:	48 8b 05 18 d6 01 00 	mov    0x1d618(%rip),%rax        # 210c0 <yytext>
    3aa8:	48 29 c2             	sub    %rax,%rdx
    3aab:	48 83 fa 01          	cmp    $0x1,%rdx
    3aaf:	75 0a                	jne    3abb <yy_get_next_buffer+0xbf>
    3ab1:	b8 01 00 00 00       	mov    $0x1,%eax
    3ab6:	e9 90 05 00 00       	jmp    404b <yy_get_next_buffer+0x64f>
    3abb:	b8 02 00 00 00       	mov    $0x2,%eax
    3ac0:	e9 86 05 00 00       	jmp    404b <yy_get_next_buffer+0x64f>
    3ac5:	48 8b 15 cc db 01 00 	mov    0x1dbcc(%rip),%rdx        # 21698 <yy_c_buf_p>
    3acc:	48 8b 05 ed d5 01 00 	mov    0x1d5ed(%rip),%rax        # 210c0 <yytext>
    3ad3:	48 29 c2             	sub    %rax,%rdx
    3ad6:	89 d0                	mov    %edx,%eax
    3ad8:	83 e8 01             	sub    $0x1,%eax
    3adb:	89 45 c8             	mov    %eax,-0x38(%rbp)
    3ade:	c7 45 b4 00 00 00 00 	movl   $0x0,-0x4c(%rbp)
    3ae5:	eb 21                	jmp    3b08 <yy_get_next_buffer+0x10c>
    3ae7:	48 8b 55 e0          	mov    -0x20(%rbp),%rdx
    3aeb:	48 8d 42 01          	lea    0x1(%rdx),%rax
    3aef:	48 89 45 e0          	mov    %rax,-0x20(%rbp)
    3af3:	48 8b 45 d8          	mov    -0x28(%rbp),%rax
    3af7:	48 8d 48 01          	lea    0x1(%rax),%rcx
    3afb:	48 89 4d d8          	mov    %rcx,-0x28(%rbp)
    3aff:	0f b6 12             	movzbl (%rdx),%edx
    3b02:	88 10                	mov    %dl,(%rax)
    3b04:	83 45 b4 01          	addl   $0x1,-0x4c(%rbp)
    3b08:	8b 45 b4             	mov    -0x4c(%rbp),%eax
    3b0b:	3b 45 c8             	cmp    -0x38(%rbp),%eax
    3b0e:	7c d7                	jl     3ae7 <yy_get_next_buffer+0xeb>
    3b10:	48 8b 05 71 db 01 00 	mov    0x1db71(%rip),%rax        # 21688 <yy_buffer_stack>
    3b17:	48 8b 15 5a db 01 00 	mov    0x1db5a(%rip),%rdx        # 21678 <yy_buffer_stack_top>
    3b1e:	48 c1 e2 03          	shl    $0x3,%rdx
    3b22:	48 01 d0             	add    %rdx,%rax
    3b25:	48 8b 00             	mov    (%rax),%rax
    3b28:	8b 40 38             	mov    0x38(%rax),%eax
    3b2b:	83 f8 02             	cmp    $0x2,%eax
    3b2e:	75 30                	jne    3b60 <yy_get_next_buffer+0x164>
    3b30:	c7 05 5a db 01 00 00 	movl   $0x0,0x1db5a(%rip)        # 21694 <yy_n_chars>
    3b37:	00 00 00
    3b3a:	48 8b 05 47 db 01 00 	mov    0x1db47(%rip),%rax        # 21688 <yy_buffer_stack>
    3b41:	48 8b 15 30 db 01 00 	mov    0x1db30(%rip),%rdx        # 21678 <yy_buffer_stack_top>
    3b48:	48 c1 e2 03          	shl    $0x3,%rdx
    3b4c:	48 01 d0             	add    %rdx,%rax
    3b4f:	48 8b 00             	mov    (%rax),%rax
    3b52:	8b 15 3c db 01 00    	mov    0x1db3c(%rip),%edx        # 21694 <yy_n_chars>
    3b58:	89 50 1c             	mov    %edx,0x1c(%rax)
    3b5b:	e9 23 03 00 00       	jmp    3e83 <yy_get_next_buffer+0x487>
    3b60:	48 8b 05 21 db 01 00 	mov    0x1db21(%rip),%rax        # 21688 <yy_buffer_stack>
    3b67:	48 8b 15 0a db 01 00 	mov    0x1db0a(%rip),%rdx        # 21678 <yy_buffer_stack_top>
    3b6e:	48 c1 e2 03          	shl    $0x3,%rdx
    3b72:	48 01 d0             	add    %rdx,%rax
    3b75:	48 8b 00             	mov    (%rax),%rax
    3b78:	8b 40 18             	mov    0x18(%rax),%eax
    3b7b:	2b 45 c8             	sub    -0x38(%rbp),%eax
    3b7e:	83 e8 01             	sub    $0x1,%eax
    3b81:	89 45 bc             	mov    %eax,-0x44(%rbp)
    3b84:	e9 10 01 00 00       	jmp    3c99 <yy_get_next_buffer+0x29d>
    3b89:	48 8b 05 f8 da 01 00 	mov    0x1daf8(%rip),%rax        # 21688 <yy_buffer_stack>
    3b90:	48 8b 15 e1 da 01 00 	mov    0x1dae1(%rip),%rdx        # 21678 <yy_buffer_stack_top>
    3b97:	48 c1 e2 03          	shl    $0x3,%rdx
    3b9b:	48 01 d0             	add    %rdx,%rax
    3b9e:	48 8b 00             	mov    (%rax),%rax
    3ba1:	48 89 45 e8          	mov    %rax,-0x18(%rbp)
    3ba5:	48 8b 15 ec da 01 00 	mov    0x1daec(%rip),%rdx        # 21698 <yy_c_buf_p>
    3bac:	48 8b 45 e8          	mov    -0x18(%rbp),%rax
    3bb0:	48 8b 40 08          	mov    0x8(%rax),%rax
    3bb4:	48 29 c2             	sub    %rax,%rdx
    3bb7:	89 55 cc             	mov    %edx,-0x34(%rbp)
    3bba:	48 8b 45 e8          	mov    -0x18(%rbp),%rax
    3bbe:	8b 40 20             	mov    0x20(%rax),%eax
    3bc1:	85 c0                	test   %eax,%eax
    3bc3:	74 71                	je     3c36 <yy_get_next_buffer+0x23a>
    3bc5:	48 8b 45 e8          	mov    -0x18(%rbp),%rax
    3bc9:	8b 40 18             	mov    0x18(%rax),%eax
    3bcc:	01 c0                	add    %eax,%eax
    3bce:	89 45 d0             	mov    %eax,-0x30(%rbp)
    3bd1:	83 7d d0 00          	cmpl   $0x0,-0x30(%rbp)
    3bd5:	7f 24                	jg     3bfb <yy_get_next_buffer+0x1ff>
    3bd7:	48 8b 45 e8          	mov    -0x18(%rbp),%rax
    3bdb:	8b 50 18             	mov    0x18(%rax),%edx
    3bde:	48 8b 45 e8          	mov    -0x18(%rbp),%rax
    3be2:	8b 40 18             	mov    0x18(%rax),%eax
    3be5:	8d 48 07             	lea    0x7(%rax),%ecx
    3be8:	85 c0                	test   %eax,%eax
    3bea:	0f 48 c1             	cmovs  %ecx,%eax
    3bed:	c1 f8 03             	sar    $0x3,%eax
    3bf0:	01 c2                	add    %eax,%edx
    3bf2:	48 8b 45 e8          	mov    -0x18(%rbp),%rax
    3bf6:	89 50 18             	mov    %edx,0x18(%rax)
    3bf9:	eb 11                	jmp    3c0c <yy_get_next_buffer+0x210>
    3bfb:	48 8b 45 e8          	mov    -0x18(%rbp),%rax
    3bff:	8b 40 18             	mov    0x18(%rax),%eax
    3c02:	8d 14 00             	lea    (%rax,%rax,1),%edx
    3c05:	48 8b 45 e8          	mov    -0x18(%rbp),%rax
    3c09:	89 50 18             	mov    %edx,0x18(%rax)
    3c0c:	48 8b 45 e8          	mov    -0x18(%rbp),%rax
    3c10:	8b 40 18             	mov    0x18(%rax),%eax
    3c13:	83 c0 02             	add    $0x2,%eax
    3c16:	48 63 d0             	movslq %eax,%rdx
    3c19:	48 8b 45 e8          	mov    -0x18(%rbp),%rax
    3c1d:	48 8b 40 08          	mov    0x8(%rax),%rax
    3c21:	48 89 d6             	mov    %rdx,%rsi
    3c24:	48 89 c7             	mov    %rax,%rdi
    3c27:	e8 7a 15 00 00       	call   51a6 <yyrealloc>
    3c2c:	48 8b 55 e8          	mov    -0x18(%rbp),%rdx
    3c30:	48 89 42 08          	mov    %rax,0x8(%rdx)
    3c34:	eb 0c                	jmp    3c42 <yy_get_next_buffer+0x246>
    3c36:	48 8b 45 e8          	mov    -0x18(%rbp),%rax
    3c3a:	48 c7 40 08 00 00 00 	movq   $0x0,0x8(%rax)
    3c41:	00
    3c42:	48 8b 45 e8          	mov    -0x18(%rbp),%rax
    3c46:	48 8b 40 08          	mov    0x8(%rax),%rax
    3c4a:	48 85 c0             	test   %rax,%rax
    3c4d:	75 0f                	jne    3c5e <yy_get_next_buffer+0x262>
    3c4f:	48 8d 05 a2 42 01 00 	lea    0x142a2(%rip),%rax        # 17ef8 <yy_chk+0x438>
    3c56:	48 89 c7             	mov    %rax,%rdi
    3c59:	e8 17 13 00 00       	call   4f75 <yy_fatal_error>
    3c5e:	48 8b 45 e8          	mov    -0x18(%rbp),%rax
    3c62:	48 8b 50 08          	mov    0x8(%rax),%rdx
    3c66:	8b 45 cc             	mov    -0x34(%rbp),%eax
    3c69:	48 98                	cltq
    3c6b:	48 01 d0             	add    %rdx,%rax
    3c6e:	48 89 05 23 da 01 00 	mov    %rax,0x1da23(%rip)        # 21698 <yy_c_buf_p>
    3c75:	48 8b 05 0c da 01 00 	mov    0x1da0c(%rip),%rax        # 21688 <yy_buffer_stack>
    3c7c:	48 8b 15 f5 d9 01 00 	mov    0x1d9f5(%rip),%rdx        # 21678 <yy_buffer_stack_top>
    3c83:	48 c1 e2 03          	shl    $0x3,%rdx
    3c87:	48 01 d0             	add    %rdx,%rax
    3c8a:	48 8b 00             	mov    (%rax),%rax
    3c8d:	8b 40 18             	mov    0x18(%rax),%eax
    3c90:	2b 45 c8             	sub    -0x38(%rbp),%eax
    3c93:	83 e8 01             	sub    $0x1,%eax
    3c96:	89 45 bc             	mov    %eax,-0x44(%rbp)
    3c99:	83 7d bc 00          	cmpl   $0x0,-0x44(%rbp)
    3c9d:	0f 8e e6 fe ff ff    	jle    3b89 <yy_get_next_buffer+0x18d>
    3ca3:	81 7d bc 00 20 00 00 	cmpl   $0x2000,-0x44(%rbp)
    3caa:	7e 07                	jle    3cb3 <yy_get_next_buffer+0x2b7>
    3cac:	c7 45 bc 00 20 00 00 	movl   $0x2000,-0x44(%rbp)
    3cb3:	48 8b 05 ce d9 01 00 	mov    0x1d9ce(%rip),%rax        # 21688 <yy_buffer_stack>
    3cba:	48 8b 15 b7 d9 01 00 	mov    0x1d9b7(%rip),%rdx        # 21678 <yy_buffer_stack_top>
    3cc1:	48 c1 e2 03          	shl    $0x3,%rdx
    3cc5:	48 01 d0             	add    %rdx,%rax
    3cc8:	48 8b 00             	mov    (%rax),%rax
    3ccb:	8b 40 24             	mov    0x24(%rax),%eax
    3cce:	85 c0                	test   %eax,%eax
    3cd0:	0f 84 e1 00 00 00    	je     3db7 <yy_get_next_buffer+0x3bb>
    3cd6:	c7 45 c0 2a 00 00 00 	movl   $0x2a,-0x40(%rbp)
    3cdd:	c7 45 c4 00 00 00 00 	movl   $0x0,-0x3c(%rbp)
    3ce4:	eb 37                	jmp    3d1d <yy_get_next_buffer+0x321>
    3ce6:	48 8b 05 9b d9 01 00 	mov    0x1d99b(%rip),%rax        # 21688 <yy_buffer_stack>
    3ced:	48 8b 15 84 d9 01 00 	mov    0x1d984(%rip),%rdx        # 21678 <yy_buffer_stack_top>
    3cf4:	48 c1 e2 03          	shl    $0x3,%rdx
    3cf8:	48 01 d0             	add    %rdx,%rax
    3cfb:	48 8b 00             	mov    (%rax),%rax
    3cfe:	48 8b 40 08          	mov    0x8(%rax),%rax
    3d02:	8b 55 c8             	mov    -0x38(%rbp),%edx
    3d05:	48 63 ca             	movslq %edx,%rcx
    3d08:	8b 55 c4             	mov    -0x3c(%rbp),%edx
    3d0b:	48 63 d2             	movslq %edx,%rdx
    3d0e:	48 01 ca             	add    %rcx,%rdx
    3d11:	48 01 d0             	add    %rdx,%rax
    3d14:	8b 55 c0             	mov    -0x40(%rbp),%edx
    3d17:	88 10                	mov    %dl,(%rax)
    3d19:	83 45 c4 01          	addl   $0x1,-0x3c(%rbp)
    3d1d:	8b 45 c4             	mov    -0x3c(%rbp),%eax
    3d20:	3b 45 bc             	cmp    -0x44(%rbp),%eax
    3d23:	7d 1e                	jge    3d43 <yy_get_next_buffer+0x347>
    3d25:	48 8b 05 7c d3 01 00 	mov    0x1d37c(%rip),%rax        # 210a8 <yyin>
    3d2c:	48 89 c7             	mov    %rax,%rdi
    3d2f:	e8 7c e7 ff ff       	call   24b0 <getc@plt>
    3d34:	89 45 c0             	mov    %eax,-0x40(%rbp)
    3d37:	83 7d c0 ff          	cmpl   $0xffffffff,-0x40(%rbp)
    3d3b:	74 06                	je     3d43 <yy_get_next_buffer+0x347>
    3d3d:	83 7d c0 0a          	cmpl   $0xa,-0x40(%rbp)
    3d41:	75 a3                	jne    3ce6 <yy_get_next_buffer+0x2ea>
    3d43:	83 7d c0 0a          	cmpl   $0xa,-0x40(%rbp)
    3d47:	75 38                	jne    3d81 <yy_get_next_buffer+0x385>
    3d49:	48 8b 05 38 d9 01 00 	mov    0x1d938(%rip),%rax        # 21688 <yy_buffer_stack>
    3d50:	48 8b 15 21 d9 01 00 	mov    0x1d921(%rip),%rdx        # 21678 <yy_buffer_stack_top>
    3d57:	48 c1 e2 03          	shl    $0x3,%rdx
    3d5b:	48 01 d0             	add    %rdx,%rax
    3d5e:	48 8b 00             	mov    (%rax),%rax
    3d61:	48 8b 48 08          	mov    0x8(%rax),%rcx
    3d65:	8b 45 c8             	mov    -0x38(%rbp),%eax
    3d68:	48 63 f0             	movslq %eax,%rsi
    3d6b:	8b 45 c4             	mov    -0x3c(%rbp),%eax
    3d6e:	8d 50 01             	lea    0x1(%rax),%edx
    3d71:	89 55 c4             	mov    %edx,-0x3c(%rbp)
    3d74:	48 98                	cltq
    3d76:	48 01 f0             	add    %rsi,%rax
    3d79:	48 01 c8             	add    %rcx,%rax
    3d7c:	8b 55 c0             	mov    -0x40(%rbp),%edx
    3d7f:	88 10                	mov    %dl,(%rax)
    3d81:	83 7d c0 ff          	cmpl   $0xffffffff,-0x40(%rbp)
    3d85:	75 22                	jne    3da9 <yy_get_next_buffer+0x3ad>
    3d87:	48 8b 05 1a d3 01 00 	mov    0x1d31a(%rip),%rax        # 210a8 <yyin>
    3d8e:	48 89 c7             	mov    %rax,%rdi
    3d91:	e8 3a e5 ff ff       	call   22d0 <ferror@plt>
    3d96:	85 c0                	test   %eax,%eax
    3d98:	74 0f                	je     3da9 <yy_get_next_buffer+0x3ad>
    3d9a:	48 8d 05 83 41 01 00 	lea    0x14183(%rip),%rax        # 17f24 <yy_chk+0x464>
    3da1:	48 89 c7             	mov    %rax,%rdi
    3da4:	e8 cc 11 00 00       	call   4f75 <yy_fatal_error>
    3da9:	8b 45 c4             	mov    -0x3c(%rbp),%eax
    3dac:	89 05 e2 d8 01 00    	mov    %eax,0x1d8e2(%rip)        # 21694 <yy_n_chars>
    3db2:	e9 ab 00 00 00       	jmp    3e62 <yy_get_next_buffer+0x466>
    3db7:	e8 e4 e4 ff ff       	call   22a0 <__errno_location@plt>
    3dbc:	c7 00 00 00 00 00    	movl   $0x0,(%rax)
    3dc2:	eb 35                	jmp    3df9 <yy_get_next_buffer+0x3fd>
    3dc4:	e8 d7 e4 ff ff       	call   22a0 <__errno_location@plt>
    3dc9:	8b 00                	mov    (%rax),%eax
    3dcb:	83 f8 04             	cmp    $0x4,%eax
    3dce:	74 0f                	je     3ddf <yy_get_next_buffer+0x3e3>
    3dd0:	48 8d 05 4d 41 01 00 	lea    0x1414d(%rip),%rax        # 17f24 <yy_chk+0x464>
    3dd7:	48 89 c7             	mov    %rax,%rdi
    3dda:	e8 96 11 00 00       	call   4f75 <yy_fatal_error>
    3ddf:	e8 bc e4 ff ff       	call   22a0 <__errno_location@plt>
    3de4:	c7 00 00 00 00 00    	movl   $0x0,(%rax)
    3dea:	48 8b 05 b7 d2 01 00 	mov    0x1d2b7(%rip),%rax        # 210a8 <yyin>
    3df1:	48 89 c7             	mov    %rax,%rdi
    3df4:	e8 e7 e5 ff ff       	call   23e0 <clearerr@plt>
    3df9:	48 8b 15 a8 d2 01 00 	mov    0x1d2a8(%rip),%rdx        # 210a8 <yyin>
    3e00:	8b 45 bc             	mov    -0x44(%rbp),%eax
    3e03:	48 98                	cltq
    3e05:	48 8b 0d 7c d8 01 00 	mov    0x1d87c(%rip),%rcx        # 21688 <yy_buffer_stack>
    3e0c:	48 8b 35 65 d8 01 00 	mov    0x1d865(%rip),%rsi        # 21678 <yy_buffer_stack_top>
    3e13:	48 c1 e6 03          	shl    $0x3,%rsi
    3e17:	48 01 f1             	add    %rsi,%rcx
    3e1a:	48 8b 09             	mov    (%rcx),%rcx
    3e1d:	48 8b 71 08          	mov    0x8(%rcx),%rsi
    3e21:	8b 4d c8             	mov    -0x38(%rbp),%ecx
    3e24:	48 63 c9             	movslq %ecx,%rcx
    3e27:	48 8d 3c 0e          	lea    (%rsi,%rcx,1),%rdi
    3e2b:	48 89 d1             	mov    %rdx,%rcx
    3e2e:	48 89 c2             	mov    %rax,%rdx
    3e31:	be 01 00 00 00       	mov    $0x1,%esi
    3e36:	e8 b5 e4 ff ff       	call   22f0 <fread@plt>
    3e3b:	89 05 53 d8 01 00    	mov    %eax,0x1d853(%rip)        # 21694 <yy_n_chars>
    3e41:	8b 05 4d d8 01 00    	mov    0x1d84d(%rip),%eax        # 21694 <yy_n_chars>
    3e47:	85 c0                	test   %eax,%eax
    3e49:	75 17                	jne    3e62 <yy_get_next_buffer+0x466>
    3e4b:	48 8b 05 56 d2 01 00 	mov    0x1d256(%rip),%rax        # 210a8 <yyin>
    3e52:	48 89 c7             	mov    %rax,%rdi
    3e55:	e8 76 e4 ff ff       	call   22d0 <ferror@plt>
    3e5a:	85 c0                	test   %eax,%eax
    3e5c:	0f 85 62 ff ff ff    	jne    3dc4 <yy_get_next_buffer+0x3c8>
    3e62:	48 8b 05 1f d8 01 00 	mov    0x1d81f(%rip),%rax        # 21688 <yy_buffer_stack>
    3e69:	48 8b 15 08 d8 01 00 	mov    0x1d808(%rip),%rdx        # 21678 <yy_buffer_stack_top>
    3e70:	48 c1 e2 03          	shl    $0x3,%rdx
    3e74:	48 01 d0             	add    %rdx,%rax
    3e77:	48 8b 00             	mov    (%rax),%rax
    3e7a:	8b 15 14 d8 01 00    	mov    0x1d814(%rip),%edx        # 21694 <yy_n_chars>
    3e80:	89 50 1c             	mov    %edx,0x1c(%rax)
    3e83:	8b 05 0b d8 01 00    	mov    0x1d80b(%rip),%eax        # 21694 <yy_n_chars>
    3e89:	85 c0                	test   %eax,%eax
    3e8b:	75 46                	jne    3ed3 <yy_get_next_buffer+0x4d7>
    3e8d:	83 7d c8 00          	cmpl   $0x0,-0x38(%rbp)
    3e91:	75 18                	jne    3eab <yy_get_next_buffer+0x4af>
    3e93:	c7 45 b8 01 00 00 00 	movl   $0x1,-0x48(%rbp)
    3e9a:	48 8b 05 07 d2 01 00 	mov    0x1d207(%rip),%rax        # 210a8 <yyin>
    3ea1:	48 89 c7             	mov    %rax,%rdi
    3ea4:	e8 cc 06 00 00       	call   4575 <yyrestart>
    3ea9:	eb 2f                	jmp    3eda <yy_get_next_buffer+0x4de>
    3eab:	c7 45 b8 02 00 00 00 	movl   $0x2,-0x48(%rbp)
    3eb2:	48 8b 05 cf d7 01 00 	mov    0x1d7cf(%rip),%rax        # 21688 <yy_buffer_stack>
    3eb9:	48 8b 15 b8 d7 01 00 	mov    0x1d7b8(%rip),%rdx        # 21678 <yy_buffer_stack_top>
    3ec0:	48 c1 e2 03          	shl    $0x3,%rdx
    3ec4:	48 01 d0             	add    %rdx,%rax
    3ec7:	48 8b 00             	mov    (%rax),%rax
    3eca:	c7 40 38 02 00 00 00 	movl   $0x2,0x38(%rax)
    3ed1:	eb 07                	jmp    3eda <yy_get_next_buffer+0x4de>
    3ed3:	c7 45 b8 00 00 00 00 	movl   $0x0,-0x48(%rbp)
    3eda:	8b 15 b4 d7 01 00    	mov    0x1d7b4(%rip),%edx        # 21694 <yy_n_chars>
    3ee0:	8b 45 c8             	mov    -0x38(%rbp),%eax
    3ee3:	8d 0c 02             	lea    (%rdx,%rax,1),%ecx
    3ee6:	48 8b 05 9b d7 01 00 	mov    0x1d79b(%rip),%rax        # 21688 <yy_buffer_stack>
    3eed:	48 8b 15 84 d7 01 00 	mov    0x1d784(%rip),%rdx        # 21678 <yy_buffer_stack_top>
    3ef4:	48 c1 e2 03          	shl    $0x3,%rdx
    3ef8:	48 01 d0             	add    %rdx,%rax
    3efb:	48 8b 00             	mov    (%rax),%rax
    3efe:	8b 40 18             	mov    0x18(%rax),%eax
    3f01:	39 c1                	cmp    %eax,%ecx
    3f03:	0f 8e b2 00 00 00    	jle    3fbb <yy_get_next_buffer+0x5bf>
    3f09:	8b 15 85 d7 01 00    	mov    0x1d785(%rip),%edx        # 21694 <yy_n_chars>
    3f0f:	8b 45 c8             	mov    -0x38(%rbp),%eax
    3f12:	01 c2                	add    %eax,%edx
    3f14:	8b 05 7a d7 01 00    	mov    0x1d77a(%rip),%eax        # 21694 <yy_n_chars>
    3f1a:	d1 f8                	sar    $1,%eax
    3f1c:	01 d0                	add    %edx,%eax
    3f1e:	89 45 d4             	mov    %eax,-0x2c(%rbp)
    3f21:	8b 45 d4             	mov    -0x2c(%rbp),%eax
    3f24:	48 63 d0             	movslq %eax,%rdx
    3f27:	48 8b 05 5a d7 01 00 	mov    0x1d75a(%rip),%rax        # 21688 <yy_buffer_stack>
    3f2e:	48 8b 0d 43 d7 01 00 	mov    0x1d743(%rip),%rcx        # 21678 <yy_buffer_stack_top>
    3f35:	48 c1 e1 03          	shl    $0x3,%rcx
    3f39:	48 01 c8             	add    %rcx,%rax
    3f3c:	48 8b 00             	mov    (%rax),%rax
    3f3f:	48 8b 40 08          	mov    0x8(%rax),%rax
    3f43:	48 8b 0d 3e d7 01 00 	mov    0x1d73e(%rip),%rcx        # 21688 <yy_buffer_stack>
    3f4a:	48 8b 35 27 d7 01 00 	mov    0x1d727(%rip),%rsi        # 21678 <yy_buffer_stack_top>
    3f51:	48 c1 e6 03          	shl    $0x3,%rsi
    3f55:	48 01 f1             	add    %rsi,%rcx
    3f58:	48 8b 19             	mov    (%rcx),%rbx
    3f5b:	48 89 d6             	mov    %rdx,%rsi
    3f5e:	48 89 c7             	mov    %rax,%rdi
    3f61:	e8 40 12 00 00       	call   51a6 <yyrealloc>
    3f66:	48 89 43 08          	mov    %rax,0x8(%rbx)
    3f6a:	48 8b 05 17 d7 01 00 	mov    0x1d717(%rip),%rax        # 21688 <yy_buffer_stack>
    3f71:	48 8b 15 00 d7 01 00 	mov    0x1d700(%rip),%rdx        # 21678 <yy_buffer_stack_top>
    3f78:	48 c1 e2 03          	shl    $0x3,%rdx
    3f7c:	48 01 d0             	add    %rdx,%rax
    3f7f:	48 8b 00             	mov    (%rax),%rax
    3f82:	48 8b 40 08          	mov    0x8(%rax),%rax
    3f86:	48 85 c0             	test   %rax,%rax
    3f89:	75 0f                	jne    3f9a <yy_get_next_buffer+0x59e>
    3f8b:	48 8d 05 b6 3f 01 00 	lea    0x13fb6(%rip),%rax        # 17f48 <yy_chk+0x488>
    3f92:	48 89 c7             	mov    %rax,%rdi
    3f95:	e8 db 0f 00 00       	call   4f75 <yy_fatal_error>
    3f9a:	48 8b 05 e7 d6 01 00 	mov    0x1d6e7(%rip),%rax        # 21688 <yy_buffer_stack>
    3fa1:	48 8b 15 d0 d6 01 00 	mov    0x1d6d0(%rip),%rdx        # 21678 <yy_buffer_stack_top>
    3fa8:	48 c1 e2 03          	shl    $0x3,%rdx
    3fac:	48 01 d0             	add    %rdx,%rax
    3faf:	48 8b 00             	mov    (%rax),%rax
    3fb2:	8b 55 d4             	mov    -0x2c(%rbp),%edx
    3fb5:	83 ea 02             	sub    $0x2,%edx
    3fb8:	89 50 18             	mov    %edx,0x18(%rax)
    3fbb:	8b 15 d3 d6 01 00    	mov    0x1d6d3(%rip),%edx        # 21694 <yy_n_chars>
    3fc1:	8b 45 c8             	mov    -0x38(%rbp),%eax
    3fc4:	01 d0                	add    %edx,%eax
    3fc6:	89 05 c8 d6 01 00    	mov    %eax,0x1d6c8(%rip)        # 21694 <yy_n_chars>
    3fcc:	48 8b 05 b5 d6 01 00 	mov    0x1d6b5(%rip),%rax        # 21688 <yy_buffer_stack>
    3fd3:	48 8b 15 9e d6 01 00 	mov    0x1d69e(%rip),%rdx        # 21678 <yy_buffer_stack_top>
    3fda:	48 c1 e2 03          	shl    $0x3,%rdx
    3fde:	48 01 d0             	add    %rdx,%rax
    3fe1:	48 8b 00             	mov    (%rax),%rax
    3fe4:	48 8b 50 08          	mov    0x8(%rax),%rdx
    3fe8:	8b 05 a6 d6 01 00    	mov    0x1d6a6(%rip),%eax        # 21694 <yy_n_chars>
    3fee:	48 98                	cltq
    3ff0:	48 01 d0             	add    %rdx,%rax
    3ff3:	c6 00 00             	movb   $0x0,(%rax)
    3ff6:	48 8b 05 8b d6 01 00 	mov    0x1d68b(%rip),%rax        # 21688 <yy_buffer_stack>
    3ffd:	48 8b 15 74 d6 01 00 	mov    0x1d674(%rip),%rdx        # 21678 <yy_buffer_stack_top>
    4004:	48 c1 e2 03          	shl    $0x3,%rdx
    4008:	48 01 d0             	add    %rdx,%rax
    400b:	48 8b 00             	mov    (%rax),%rax
    400e:	48 8b 40 08          	mov    0x8(%rax),%rax
    4012:	8b 15 7c d6 01 00    	mov    0x1d67c(%rip),%edx        # 21694 <yy_n_chars>
    4018:	48 63 d2             	movslq %edx,%rdx
    401b:	48 83 c2 01          	add    $0x1,%rdx
    401f:	48 01 d0             	add    %rdx,%rax
    4022:	c6 00 00             	movb   $0x0,(%rax)
    4025:	48 8b 05 5c d6 01 00 	mov    0x1d65c(%rip),%rax        # 21688 <yy_buffer_stack>
    402c:	48 8b 15 45 d6 01 00 	mov    0x1d645(%rip),%rdx        # 21678 <yy_buffer_stack_top>
    4033:	48 c1 e2 03          	shl    $0x3,%rdx
    4037:	48 01 d0             	add    %rdx,%rax
    403a:	48 8b 00             	mov    (%rax),%rax
    403d:	48 8b 40 08          	mov    0x8(%rax),%rax
    4041:	48 89 05 78 d0 01 00 	mov    %rax,0x1d078(%rip)        # 210c0 <yytext>
    4048:	8b 45 b8             	mov    -0x48(%rbp),%eax
    404b:	48 8b 5d f8          	mov    -0x8(%rbp),%rbx
    404f:	c9                   	leave
    4050:	c3                   	ret

0000000000004051 <yy_get_previous_state>:
    4051:	f3 0f 1e fa          	endbr64
    4055:	55                   	push   %rbp
    4056:	48 89 e5             	mov    %rsp,%rbp
    4059:	8b 05 45 d6 01 00    	mov    0x1d645(%rip),%eax        # 216a4 <yy_start>
    405f:	89 45 f4             	mov    %eax,-0xc(%rbp)
    4062:	48 8b 05 57 d0 01 00 	mov    0x1d057(%rip),%rax        # 210c0 <yytext>
    4069:	48 89 45 f8          	mov    %rax,-0x8(%rbp)
    406d:	e9 fb 00 00 00       	jmp    416d <yy_get_previous_state+0x11c>
    4072:	48 8b 45 f8          	mov    -0x8(%rbp),%rax
    4076:	0f b6 00             	movzbl (%rax),%eax
    4079:	84 c0                	test   %al,%al
    407b:	74 19                	je     4096 <yy_get_previous_state+0x45>
    407d:	48 8b 45 f8          	mov    -0x8(%rbp),%rax
    4081:	0f b6 00             	movzbl (%rax),%eax
    4084:	0f b6 c0             	movzbl %al,%eax
    4087:	48 98                	cltq
    4089:	48 8d 15 90 32 01 00 	lea    0x13290(%rip),%rdx        # 17320 <yy_ec>
    4090:	0f b6 04 10          	movzbl (%rax,%rdx,1),%eax
    4094:	eb 05                	jmp    409b <yy_get_previous_state+0x4a>
    4096:	b8 01 00 00 00       	mov    $0x1,%eax
    409b:	88 45 f3             	mov    %al,-0xd(%rbp)
    409e:	8b 45 f4             	mov    -0xc(%rbp),%eax
    40a1:	48 98                	cltq
    40a3:	48 8d 14 00          	lea    (%rax,%rax,1),%rdx
    40a7:	48 8d 05 b2 30 01 00 	lea    0x130b2(%rip),%rax        # 17160 <yy_accept>
    40ae:	0f b7 04 02          	movzwl (%rdx,%rax,1),%eax
    40b2:	66 85 c0             	test   %ax,%ax
    40b5:	74 4b                	je     4102 <yy_get_previous_state+0xb1>
    40b7:	8b 45 f4             	mov    -0xc(%rbp),%eax
    40ba:	89 05 ec d5 01 00    	mov    %eax,0x1d5ec(%rip)        # 216ac <yy_last_accepting_state>
    40c0:	48 8b 45 f8          	mov    -0x8(%rbp),%rax
    40c4:	48 89 05 e5 d5 01 00 	mov    %rax,0x1d5e5(%rip)        # 216b0 <yy_last_accepting_cpos>
    40cb:	eb 35                	jmp    4102 <yy_get_previous_state+0xb1>
    40cd:	8b 45 f4             	mov    -0xc(%rbp),%eax
    40d0:	48 98                	cltq
    40d2:	48 8d 14 00          	lea    (%rax,%rax,1),%rdx
    40d6:	48 8d 05 63 35 01 00 	lea    0x13563(%rip),%rax        # 17640 <yy_def>
    40dd:	0f b7 04 02          	movzwl (%rdx,%rax,1),%eax
    40e1:	98                   	cwtl
    40e2:	89 45 f4             	mov    %eax,-0xc(%rbp)
    40e5:	81 7d f4 d4 00 00 00 	cmpl   $0xd4,-0xc(%rbp)
    40ec:	7e 14                	jle    4102 <yy_get_previous_state+0xb1>
    40ee:	0f b6 45 f3          	movzbl -0xd(%rbp),%eax
    40f2:	48 98                	cltq
    40f4:	48 8d 15 25 33 01 00 	lea    0x13325(%rip),%rdx        # 17420 <yy_meta>
    40fb:	0f b6 04 10          	movzbl (%rax,%rdx,1),%eax
    40ff:	88 45 f3             	mov    %al,-0xd(%rbp)
    4102:	8b 45 f4             	mov    -0xc(%rbp),%eax
    4105:	48 98                	cltq
    4107:	48 8d 14 00          	lea    (%rax,%rax,1),%rdx
    410b:	48 8d 05 4e 33 01 00 	lea    0x1334e(%rip),%rax        # 17460 <yy_base>
    4112:	0f b7 04 02          	movzwl (%rdx,%rax,1),%eax
    4116:	0f bf d0             	movswl %ax,%edx
    4119:	0f b6 45 f3          	movzbl -0xd(%rbp),%eax
    411d:	01 d0                	add    %edx,%eax
    411f:	48 98                	cltq
    4121:	48 8d 14 00          	lea    (%rax,%rax,1),%rdx
    4125:	48 8d 05 94 39 01 00 	lea    0x13994(%rip),%rax        # 17ac0 <yy_chk>
    412c:	0f b7 04 02          	movzwl (%rdx,%rax,1),%eax
    4130:	98                   	cwtl
    4131:	39 45 f4             	cmp    %eax,-0xc(%rbp)
    4134:	75 97                	jne    40cd <yy_get_previous_state+0x7c>
    4136:	8b 45 f4             	mov    -0xc(%rbp),%eax
    4139:	48 98                	cltq
    413b:	48 8d 14 00          	lea    (%rax,%rax,1),%rdx
    413f:	48 8d 05 1a 33 01 00 	lea    0x1331a(%rip),%rax        # 17460 <yy_base>
    4146:	0f b7 04 02          	movzwl (%rdx,%rax,1),%eax
    414a:	0f bf d0             	movswl %ax,%edx
    414d:	0f b6 45 f3          	movzbl -0xd(%rbp),%eax
    4151:	01 d0                	add    %edx,%eax
    4153:	48 98                	cltq
    4155:	48 8d 14 00          	lea    (%rax,%rax,1),%rdx
    4159:	48 8d 05 c0 36 01 00 	lea    0x136c0(%rip),%rax        # 17820 <yy_nxt>
    4160:	0f b7 04 02          	movzwl (%rdx,%rax,1),%eax
    4164:	98                   	cwtl
    4165:	89 45 f4             	mov    %eax,-0xc(%rbp)
    4168:	48 83 45 f8 01       	addq   $0x1,-0x8(%rbp)
    416d:	48 8b 05 24 d5 01 00 	mov    0x1d524(%rip),%rax        # 21698 <yy_c_buf_p>
    4174:	48 39 45 f8          	cmp    %rax,-0x8(%rbp)
    4178:	0f 82 f4 fe ff ff    	jb     4072 <yy_get_previous_state+0x21>
    417e:	8b 45 f4             	mov    -0xc(%rbp),%eax
    4181:	5d                   	pop    %rbp
    4182:	c3                   	ret

0000000000004183 <yy_try_NUL_trans>:
    4183:	f3 0f 1e fa          	endbr64
    4187:	55                   	push   %rbp
    4188:	48 89 e5             	mov    %rsp,%rbp
    418b:	89 7d ec             	mov    %edi,-0x14(%rbp)
    418e:	48 8b 05 03 d5 01 00 	mov    0x1d503(%rip),%rax        # 21698 <yy_c_buf_p>
    4195:	48 89 45 f8          	mov    %rax,-0x8(%rbp)
    4199:	c6 45 f3 01          	movb   $0x1,-0xd(%rbp)
    419d:	8b 45 ec             	mov    -0x14(%rbp),%eax
    41a0:	48 98                	cltq
    41a2:	48 8d 14 00          	lea    (%rax,%rax,1),%rdx
    41a6:	48 8d 05 b3 2f 01 00 	lea    0x12fb3(%rip),%rax        # 17160 <yy_accept>
    41ad:	0f b7 04 02          	movzwl (%rdx,%rax,1),%eax
    41b1:	66 85 c0             	test   %ax,%ax
    41b4:	74 4b                	je     4201 <yy_try_NUL_trans+0x7e>
    41b6:	8b 45 ec             	mov    -0x14(%rbp),%eax
    41b9:	89 05 ed d4 01 00    	mov    %eax,0x1d4ed(%rip)        # 216ac <yy_last_accepting_state>
    41bf:	48 8b 45 f8          	mov    -0x8(%rbp),%rax
    41c3:	48 89 05 e6 d4 01 00 	mov    %rax,0x1d4e6(%rip)        # 216b0 <yy_last_accepting_cpos>
    41ca:	eb 35                	jmp    4201 <yy_try_NUL_trans+0x7e>
    41cc:	8b 45 ec             	mov    -0x14(%rbp),%eax
    41cf:	48 98                	cltq
    41d1:	48 8d 14 00          	lea    (%rax,%rax,1),%rdx
    41d5:	48 8d 05 64 34 01 00 	lea    0x13464(%rip),%rax        # 17640 <yy_def>
    41dc:	0f b7 04 02          	movzwl (%rdx,%rax,1),%eax
    41e0:	98                   	cwtl
    41e1:	89 45 ec             	mov    %eax,-0x14(%rbp)
    41e4:	81 7d ec d4 00 00 00 	cmpl   $0xd4,-0x14(%rbp)
    41eb:	7e 14                	jle    4201 <yy_try_NUL_trans+0x7e>
    41ed:	0f b6 45 f3          	movzbl -0xd(%rbp),%eax
    41f1:	48 98                	cltq
    41f3:	48 8d 15 26 32 01 00 	lea    0x13226(%rip),%rdx        # 17420 <yy_meta>
    41fa:	0f b6 04 10          	movzbl (%rax,%rdx,1),%eax
    41fe:	88 45 f3             	mov    %al,-0xd(%rbp)
    4201:	8b 45 ec             	mov    -0x14(%rbp),%eax
    4204:	48 98                	cltq
    4206:	48 8d 14 00          	lea    (%rax,%rax,1),%rdx
    420a:	48 8d 05 4f 32 01 00 	lea    0x1324f(%rip),%rax        # 17460 <yy_base>
    4211:	0f b7 04 02          	movzwl (%rdx,%rax,1),%eax
    4215:	0f bf d0             	movswl %ax,%edx
    4218:	0f b6 45 f3          	movzbl -0xd(%rbp),%eax
    421c:	01 d0                	add    %edx,%eax
    421e:	48 98                	cltq
    4220:	48 8d 14 00          	lea    (%rax,%rax,1),%rdx
    4224:	48 8d 05 95 38 01 00 	lea    0x13895(%rip),%rax        # 17ac0 <yy_chk>
    422b:	0f b7 04 02          	movzwl (%rdx,%rax,1),%eax
    422f:	98                   	cwtl
    4230:	39 45 ec             	cmp    %eax,-0x14(%rbp)
    4233:	75 97                	jne    41cc <yy_try_NUL_trans+0x49>
    4235:	8b 45 ec             	mov    -0x14(%rbp),%eax
    4238:	48 98                	cltq
    423a:	48 8d 14 00          	lea    (%rax,%rax,1),%rdx
    423e:	48 8d 05 1b 32 01 00 	lea    0x1321b(%rip),%rax        # 17460 <yy_base>
    4245:	0f b7 04 02          	movzwl (%rdx,%rax,1),%eax
    4249:	0f bf d0             	movswl %ax,%edx
    424c:	0f b6 45 f3          	movzbl -0xd(%rbp),%eax
    4250:	01 d0                	add    %edx,%eax
    4252:	48 98                	cltq
    4254:	48 8d 14 00          	lea    (%rax,%rax,1),%rdx
    4258:	48 8d 05 c1 35 01 00 	lea    0x135c1(%rip),%rax        # 17820 <yy_nxt>
    425f:	0f b7 04 02          	movzwl (%rdx,%rax,1),%eax
    4263:	98                   	cwtl
    4264:	89 45 ec             	mov    %eax,-0x14(%rbp)
    4267:	81 7d ec d4 00 00 00 	cmpl   $0xd4,-0x14(%rbp)
    426e:	0f 94 c0             	sete   %al
    4271:	0f b6 c0             	movzbl %al,%eax
    4274:	89 45 f4             	mov    %eax,-0xc(%rbp)
    4277:	83 7d f4 00          	cmpl   $0x0,-0xc(%rbp)
    427b:	75 05                	jne    4282 <yy_try_NUL_trans+0xff>
    427d:	8b 45 ec             	mov    -0x14(%rbp),%eax
    4280:	eb 05                	jmp    4287 <yy_try_NUL_trans+0x104>
    4282:	b8 00 00 00 00       	mov    $0x0,%eax
    4287:	5d                   	pop    %rbp
    4288:	c3                   	ret

0000000000004289 <yyunput>:
    4289:	f3 0f 1e fa          	endbr64
    428d:	55                   	push   %rbp
    428e:	48 89 e5             	mov    %rsp,%rbp
    4291:	48 83 ec 30          	sub    $0x30,%rsp
    4295:	89 7d dc             	mov    %edi,-0x24(%rbp)
    4298:	48 89 75 d0          	mov    %rsi,-0x30(%rbp)
    429c:	48 8b 05 f5 d3 01 00 	mov    0x1d3f5(%rip),%rax        # 21698 <yy_c_buf_p>
    42a3:	48 89 45 e8          	mov    %rax,-0x18(%rbp)
    42a7:	0f b6 15 e2 d3 01 00 	movzbl 0x1d3e2(%rip),%edx        # 21690 <yy_hold_char>
    42ae:	48 8b 45 e8          	mov    -0x18(%rbp),%rax
    42b2:	88 10                	mov    %dl,(%rax)
    42b4:	48 8b 05 cd d3 01 00 	mov    0x1d3cd(%rip),%rax        # 21688 <yy_buffer_stack>
    42bb:	48 8b 15 b6 d3 01 00 	mov    0x1d3b6(%rip),%rdx        # 21678 <yy_buffer_stack_top>
    42c2:	48 c1 e2 03          	shl    $0x3,%rdx
    42c6:	48 01 d0             	add    %rdx,%rax
    42c9:	48 8b 00             	mov    (%rax),%rax
    42cc:	48 8b 40 08          	mov    0x8(%rax),%rax
    42d0:	48 83 c0 02          	add    $0x2,%rax
    42d4:	48 39 45 e8          	cmp    %rax,-0x18(%rbp)
    42d8:	0f 83 46 01 00 00    	jae    4424 <yyunput+0x19b>
    42de:	8b 05 b0 d3 01 00    	mov    0x1d3b0(%rip),%eax        # 21694 <yy_n_chars>
    42e4:	83 c0 02             	add    $0x2,%eax
    42e7:	89 45 e4             	mov    %eax,-0x1c(%rbp)
    42ea:	48 8b 05 97 d3 01 00 	mov    0x1d397(%rip),%rax        # 21688 <yy_buffer_stack>
    42f1:	48 8b 15 80 d3 01 00 	mov    0x1d380(%rip),%rdx        # 21678 <yy_buffer_stack_top>
    42f8:	48 c1 e2 03          	shl    $0x3,%rdx
    42fc:	48 01 d0             	add    %rdx,%rax
    42ff:	48 8b 00             	mov    (%rax),%rax
    4302:	48 8b 50 08          	mov    0x8(%rax),%rdx
    4306:	48 8b 05 7b d3 01 00 	mov    0x1d37b(%rip),%rax        # 21688 <yy_buffer_stack>
    430d:	48 8b 0d 64 d3 01 00 	mov    0x1d364(%rip),%rcx        # 21678 <yy_buffer_stack_top>
    4314:	48 c1 e1 03          	shl    $0x3,%rcx
    4318:	48 01 c8             	add    %rcx,%rax
    431b:	48 8b 00             	mov    (%rax),%rax
    431e:	8b 40 18             	mov    0x18(%rax),%eax
    4321:	48 98                	cltq
    4323:	48 83 c0 02          	add    $0x2,%rax
    4327:	48 01 d0             	add    %rdx,%rax
    432a:	48 89 45 f0          	mov    %rax,-0x10(%rbp)
    432e:	48 8b 05 53 d3 01 00 	mov    0x1d353(%rip),%rax        # 21688 <yy_buffer_stack>
    4335:	48 8b 15 3c d3 01 00 	mov    0x1d33c(%rip),%rdx        # 21678 <yy_buffer_stack_top>
    433c:	48 c1 e2 03          	shl    $0x3,%rdx
    4340:	48 01 d0             	add    %rdx,%rax
    4343:	48 8b 00             	mov    (%rax),%rax
    4346:	48 8b 50 08          	mov    0x8(%rax),%rdx
    434a:	8b 45 e4             	mov    -0x1c(%rbp),%eax
    434d:	48 98                	cltq
    434f:	48 01 d0             	add    %rdx,%rax
    4352:	48 89 45 f8          	mov    %rax,-0x8(%rbp)
    4356:	eb 17                	jmp    436f <yyunput+0xe6>
    4358:	48 83 6d f8 01       	subq   $0x1,-0x8(%rbp)
    435d:	48 83 6d f0 01       	subq   $0x1,-0x10(%rbp)
    4362:	48 8b 45 f8          	mov    -0x8(%rbp),%rax
    4366:	0f b6 10             	movzbl (%rax),%edx
    4369:	48 8b 45 f0          	mov    -0x10(%rbp),%rax
    436d:	88 10                	mov    %dl,(%rax)
    436f:	48 8b 05 12 d3 01 00 	mov    0x1d312(%rip),%rax        # 21688 <yy_buffer_stack>
    4376:	48 8b 15 fb d2 01 00 	mov    0x1d2fb(%rip),%rdx        # 21678 <yy_buffer_stack_top>
    437d:	48 c1 e2 03          	shl    $0x3,%rdx
    4381:	48 01 d0             	add    %rdx,%rax
    4384:	48 8b 00             	mov    (%rax),%rax
    4387:	48 8b 40 08          	mov    0x8(%rax),%rax
    438b:	48 3b 45 f8          	cmp    -0x8(%rbp),%rax
    438f:	72 c7                	jb     4358 <yyunput+0xcf>
    4391:	48 8b 45 f0          	mov    -0x10(%rbp),%rax
    4395:	48 2b 45 f8          	sub    -0x8(%rbp),%rax
    4399:	48 98                	cltq
    439b:	48 01 45 e8          	add    %rax,-0x18(%rbp)
    439f:	48 8b 45 f0          	mov    -0x10(%rbp),%rax
    43a3:	48 2b 45 f8          	sub    -0x8(%rbp),%rax
    43a7:	48 98                	cltq
    43a9:	48 01 45 d0          	add    %rax,-0x30(%rbp)
    43ad:	48 8b 05 d4 d2 01 00 	mov    0x1d2d4(%rip),%rax        # 21688 <yy_buffer_stack>
    43b4:	48 8b 15 bd d2 01 00 	mov    0x1d2bd(%rip),%rdx        # 21678 <yy_buffer_stack_top>
    43bb:	48 c1 e2 03          	shl    $0x3,%rdx
    43bf:	48 01 d0             	add    %rdx,%rax
    43c2:	48 8b 00             	mov    (%rax),%rax
    43c5:	8b 40 18             	mov    0x18(%rax),%eax
    43c8:	89 05 c6 d2 01 00    	mov    %eax,0x1d2c6(%rip)        # 21694 <yy_n_chars>
    43ce:	48 8b 05 b3 d2 01 00 	mov    0x1d2b3(%rip),%rax        # 21688 <yy_buffer_stack>
    43d5:	48 8b 15 9c d2 01 00 	mov    0x1d29c(%rip),%rdx        # 21678 <yy_buffer_stack_top>
    43dc:	48 c1 e2 03          	shl    $0x3,%rdx
    43e0:	48 01 d0             	add    %rdx,%rax
    43e3:	48 8b 00             	mov    (%rax),%rax
    43e6:	8b 15 a8 d2 01 00    	mov    0x1d2a8(%rip),%edx        # 21694 <yy_n_chars>
    43ec:	89 50 1c             	mov    %edx,0x1c(%rax)
    43ef:	48 8b 05 92 d2 01 00 	mov    0x1d292(%rip),%rax        # 21688 <yy_buffer_stack>
    43f6:	48 8b 15 7b d2 01 00 	mov    0x1d27b(%rip),%rdx        # 21678 <yy_buffer_stack_top>
    43fd:	48 c1 e2 03          	shl    $0x3,%rdx
    4401:	48 01 d0             	add    %rdx,%rax
    4404:	48 8b 00             	mov    (%rax),%rax
    4407:	48 8b 40 08          	mov    0x8(%rax),%rax
    440b:	48 83 c0 02          	add    $0x2,%rax
    440f:	48 39 45 e8          	cmp    %rax,-0x18(%rbp)
    4413:	73 0f                	jae    4424 <yyunput+0x19b>
    4415:	48 8d 05 5c 3b 01 00 	lea    0x13b5c(%rip),%rax        # 17f78 <yy_chk+0x4b8>
    441c:	48 89 c7             	mov    %rax,%rdi
    441f:	e8 51 0b 00 00       	call   4f75 <yy_fatal_error>
    4424:	48 83 6d e8 01       	subq   $0x1,-0x18(%rbp)
    4429:	8b 45 dc             	mov    -0x24(%rbp),%eax
    442c:	89 c2                	mov    %eax,%edx
    442e:	48 8b 45 e8          	mov    -0x18(%rbp),%rax
    4432:	88 10                	mov    %dl,(%rax)
    4434:	48 8b 45 d0          	mov    -0x30(%rbp),%rax
    4438:	48 89 05 81 cc 01 00 	mov    %rax,0x1cc81(%rip)        # 210c0 <yytext>
    443f:	48 8b 45 e8          	mov    -0x18(%rbp),%rax
    4443:	0f b6 00             	movzbl (%rax),%eax
    4446:	88 05 44 d2 01 00    	mov    %al,0x1d244(%rip)        # 21690 <yy_hold_char>
    444c:	48 8b 45 e8          	mov    -0x18(%rbp),%rax
    4450:	48 89 05 41 d2 01 00 	mov    %rax,0x1d241(%rip)        # 21698 <yy_c_buf_p>
    4457:	90                   	nop
    4458:	c9                   	leave
    4459:	c3                   	ret

000000000000445a <input>:
    445a:	f3 0f 1e fa          	endbr64
    445e:	55                   	push   %rbp
    445f:	48 89 e5             	mov    %rsp,%rbp
    4462:	48 83 ec 10          	sub    $0x10,%rsp
    4466:	48 8b 05 2b d2 01 00 	mov    0x1d22b(%rip),%rax        # 21698 <yy_c_buf_p>
    446d:	0f b6 15 1c d2 01 00 	movzbl 0x1d21c(%rip),%edx        # 21690 <yy_hold_char>
    4474:	88 10                	mov    %dl,(%rax)
    4476:	48 8b 05 1b d2 01 00 	mov    0x1d21b(%rip),%rax        # 21698 <yy_c_buf_p>
    447d:	0f b6 00             	movzbl (%rax),%eax
    4480:	84 c0                	test   %al,%al
    4482:	0f 85 ac 00 00 00    	jne    4534 <input+0xda>
    4488:	48 8b 05 f9 d1 01 00 	mov    0x1d1f9(%rip),%rax        # 21688 <yy_buffer_stack>
    448f:	48 8b 15 e2 d1 01 00 	mov    0x1d1e2(%rip),%rdx        # 21678 <yy_buffer_stack_top>
    4496:	48 c1 e2 03          	shl    $0x3,%rdx
    449a:	48 01 d0             	add    %rdx,%rax
    449d:	48 8b 00             	mov    (%rax),%rax
    44a0:	48 8b 50 08          	mov    0x8(%rax),%rdx
    44a4:	8b 05 ea d1 01 00    	mov    0x1d1ea(%rip),%eax        # 21694 <yy_n_chars>
    44aa:	48 98                	cltq
    44ac:	48 01 d0             	add    %rdx,%rax
    44af:	48 8b 15 e2 d1 01 00 	mov    0x1d1e2(%rip),%rdx        # 21698 <yy_c_buf_p>
    44b6:	48 39 c2             	cmp    %rax,%rdx
    44b9:	73 0c                	jae    44c7 <input+0x6d>
    44bb:	48 8b 05 d6 d1 01 00 	mov    0x1d1d6(%rip),%rax        # 21698 <yy_c_buf_p>
    44c2:	c6 00 00             	movb   $0x0,(%rax)
    44c5:	eb 6d                	jmp    4534 <input+0xda>
    44c7:	48 8b 15 ca d1 01 00 	mov    0x1d1ca(%rip),%rdx        # 21698 <yy_c_buf_p>
    44ce:	48 8b 05 eb cb 01 00 	mov    0x1cbeb(%rip),%rax        # 210c0 <yytext>
    44d5:	48 29 c2             	sub    %rax,%rdx
    44d8:	89 55 f8             	mov    %edx,-0x8(%rbp)
    44db:	48 8b 05 b6 d1 01 00 	mov    0x1d1b6(%rip),%rax        # 21698 <yy_c_buf_p>
    44e2:	48 83 c0 01          	add    $0x1,%rax
    44e6:	48 89 05 ab d1 01 00 	mov    %rax,0x1d1ab(%rip)        # 21698 <yy_c_buf_p>
    44ed:	e8 0a f5 ff ff       	call   39fc <yy_get_next_buffer>
    44f2:	83 f8 02             	cmp    $0x2,%eax
    44f5:	74 10                	je     4507 <input+0xad>
    44f7:	83 f8 02             	cmp    $0x2,%eax
    44fa:	7f 38                	jg     4534 <input+0xda>
    44fc:	85 c0                	test   %eax,%eax
    44fe:	74 1d                	je     451d <input+0xc3>
    4500:	83 f8 01             	cmp    $0x1,%eax
    4503:	74 11                	je     4516 <input+0xbc>
    4505:	eb 2d                	jmp    4534 <input+0xda>
    4507:	48 8b 05 9a cb 01 00 	mov    0x1cb9a(%rip),%rax        # 210a8 <yyin>
    450e:	48 89 c7             	mov    %rax,%rdi
    4511:	e8 5f 00 00 00       	call   4575 <yyrestart>
    4516:	b8 00 00 00 00       	mov    $0x0,%eax
    451b:	eb 56                	jmp    4573 <input+0x119>
    451d:	48 8b 15 9c cb 01 00 	mov    0x1cb9c(%rip),%rdx        # 210c0 <yytext>
    4524:	8b 45 f8             	mov    -0x8(%rbp),%eax
    4527:	48 98                	cltq
    4529:	48 01 d0             	add    %rdx,%rax
    452c:	48 89 05 65 d1 01 00 	mov    %rax,0x1d165(%rip)        # 21698 <yy_c_buf_p>
    4533:	90                   	nop
    4534:	48 8b 05 5d d1 01 00 	mov    0x1d15d(%rip),%rax        # 21698 <yy_c_buf_p>
    453b:	0f b6 00             	movzbl (%rax),%eax
    453e:	0f b6 c0             	movzbl %al,%eax
    4541:	89 45 fc             	mov    %eax,-0x4(%rbp)
    4544:	48 8b 05 4d d1 01 00 	mov    0x1d14d(%rip),%rax        # 21698 <yy_c_buf_p>
    454b:	c6 00 00             	movb   $0x0,(%rax)
    454e:	48 8b 05 43 d1 01 00 	mov    0x1d143(%rip),%rax        # 21698 <yy_c_buf_p>
    4555:	48 83 c0 01          	add    $0x1,%rax
    4559:	48 89 05 38 d1 01 00 	mov    %rax,0x1d138(%rip)        # 21698 <yy_c_buf_p>
    4560:	48 8b 05 31 d1 01 00 	mov    0x1d131(%rip),%rax        # 21698 <yy_c_buf_p>
    4567:	0f b6 00             	movzbl (%rax),%eax
    456a:	88 05 20 d1 01 00    	mov    %al,0x1d120(%rip)        # 21690 <yy_hold_char>
    4570:	8b 45 fc             	mov    -0x4(%rbp),%eax
    4573:	c9                   	leave
    4574:	c3                   	ret

0000000000004575 <yyrestart>:
    4575:	f3 0f 1e fa          	endbr64
    4579:	55                   	push   %rbp
    457a:	48 89 e5             	mov    %rsp,%rbp
    457d:	53                   	push   %rbx
    457e:	48 83 ec 18          	sub    $0x18,%rsp
    4582:	48 89 7d e8          	mov    %rdi,-0x18(%rbp)
    4586:	48 8b 05 fb d0 01 00 	mov    0x1d0fb(%rip),%rax        # 21688 <yy_buffer_stack>
    458d:	48 85 c0             	test   %rax,%rax
    4590:	74 1d                	je     45af <yyrestart+0x3a>
    4592:	48 8b 05 ef d0 01 00 	mov    0x1d0ef(%rip),%rax        # 21688 <yy_buffer_stack>
    4599:	48 8b 15 d8 d0 01 00 	mov    0x1d0d8(%rip),%rdx        # 21678 <yy_buffer_stack_top>
    45a0:	48 c1 e2 03          	shl    $0x3,%rdx
    45a4:	48 01 d0             	add    %rdx,%rax
    45a7:	48 8b 00             	mov    (%rax),%rax
    45aa:	48 85 c0             	test   %rax,%rax
    45ad:	75 32                	jne    45e1 <yyrestart+0x6c>
    45af:	e8 77 06 00 00       	call   4c2b <yyensure_buffer_stack>
    45b4:	48 8b 05 ed ca 01 00 	mov    0x1caed(%rip),%rax        # 210a8 <yyin>
    45bb:	48 8b 15 c6 d0 01 00 	mov    0x1d0c6(%rip),%rdx        # 21688 <yy_buffer_stack>
    45c2:	48 8b 0d af d0 01 00 	mov    0x1d0af(%rip),%rcx        # 21678 <yy_buffer_stack_top>
    45c9:	48 c1 e1 03          	shl    $0x3,%rcx
    45cd:	48 8d 1c 0a          	lea    (%rdx,%rcx,1),%rbx
    45d1:	be 00 40 00 00       	mov    $0x4000,%esi
    45d6:	48 89 c7             	mov    %rax,%rdi
    45d9:	e8 cf 01 00 00       	call   47ad <yy_create_buffer>
    45de:	48 89 03             	mov    %rax,(%rbx)
    45e1:	48 8b 05 a0 d0 01 00 	mov    0x1d0a0(%rip),%rax        # 21688 <yy_buffer_stack>
    45e8:	48 85 c0             	test   %rax,%rax
    45eb:	74 1a                	je     4607 <yyrestart+0x92>
    45ed:	48 8b 05 94 d0 01 00 	mov    0x1d094(%rip),%rax        # 21688 <yy_buffer_stack>
    45f4:	48 8b 15 7d d0 01 00 	mov    0x1d07d(%rip),%rdx        # 21678 <yy_buffer_stack_top>
    45fb:	48 c1 e2 03          	shl    $0x3,%rdx
    45ff:	48 01 d0             	add    %rdx,%rax
    4602:	48 8b 00             	mov    (%rax),%rax
    4605:	eb 05                	jmp    460c <yyrestart+0x97>
    4607:	b8 00 00 00 00       	mov    $0x0,%eax
    460c:	48 8b 55 e8          	mov    -0x18(%rbp),%rdx
    4610:	48 89 d6             	mov    %rdx,%rsi
    4613:	48 89 c7             	mov    %rax,%rdi
    4616:	e8 bf 02 00 00       	call   48da <yy_init_buffer>
    461b:	e8 fe 00 00 00       	call   471e <yy_load_buffer_state>
    4620:	90                   	nop
    4621:	48 8b 5d f8          	mov    -0x8(%rbp),%rbx
    4625:	c9                   	leave
    4626:	c3                   	ret

0000000000004627 <yy_switch_to_buffer>:
    4627:	f3 0f 1e fa          	endbr64
    462b:	55                   	push   %rbp
    462c:	48 89 e5             	mov    %rsp,%rbp
    462f:	48 83 ec 10          	sub    $0x10,%rsp
    4633:	48 89 7d f8          	mov    %rdi,-0x8(%rbp)
    4637:	e8 ef 05 00 00       	call   4c2b <yyensure_buffer_stack>
    463c:	48 8b 05 45 d0 01 00 	mov    0x1d045(%rip),%rax        # 21688 <yy_buffer_stack>
    4643:	48 85 c0             	test   %rax,%rax
    4646:	74 1a                	je     4662 <yy_switch_to_buffer+0x3b>
    4648:	48 8b 05 39 d0 01 00 	mov    0x1d039(%rip),%rax        # 21688 <yy_buffer_stack>
    464f:	48 8b 15 22 d0 01 00 	mov    0x1d022(%rip),%rdx        # 21678 <yy_buffer_stack_top>
    4656:	48 c1 e2 03          	shl    $0x3,%rdx
    465a:	48 01 d0             	add    %rdx,%rax
    465d:	48 8b 00             	mov    (%rax),%rax
    4660:	eb 05                	jmp    4667 <yy_switch_to_buffer+0x40>
    4662:	b8 00 00 00 00       	mov    $0x0,%eax
    4667:	48 3b 45 f8          	cmp    -0x8(%rbp),%rax
    466b:	0f 84 aa 00 00 00    	je     471b <yy_switch_to_buffer+0xf4>
    4671:	48 8b 05 10 d0 01 00 	mov    0x1d010(%rip),%rax        # 21688 <yy_buffer_stack>
    4678:	48 85 c0             	test   %rax,%rax
    467b:	74 71                	je     46ee <yy_switch_to_buffer+0xc7>
    467d:	48 8b 05 04 d0 01 00 	mov    0x1d004(%rip),%rax        # 21688 <yy_buffer_stack>
    4684:	48 8b 15 ed cf 01 00 	mov    0x1cfed(%rip),%rdx        # 21678 <yy_buffer_stack_top>
    468b:	48 c1 e2 03          	shl    $0x3,%rdx
    468f:	48 01 d0             	add    %rdx,%rax
    4692:	48 8b 00             	mov    (%rax),%rax
    4695:	48 85 c0             	test   %rax,%rax
    4698:	74 54                	je     46ee <yy_switch_to_buffer+0xc7>
    469a:	48 8b 05 f7 cf 01 00 	mov    0x1cff7(%rip),%rax        # 21698 <yy_c_buf_p>
    46a1:	0f b6 15 e8 cf 01 00 	movzbl 0x1cfe8(%rip),%edx        # 21690 <yy_hold_char>
    46a8:	88 10                	mov    %dl,(%rax)
    46aa:	48 8b 05 d7 cf 01 00 	mov    0x1cfd7(%rip),%rax        # 21688 <yy_buffer_stack>
    46b1:	48 8b 15 c0 cf 01 00 	mov    0x1cfc0(%rip),%rdx        # 21678 <yy_buffer_stack_top>
    46b8:	48 c1 e2 03          	shl    $0x3,%rdx
    46bc:	48 01 d0             	add    %rdx,%rax
    46bf:	48 8b 00             	mov    (%rax),%rax
    46c2:	48 8b 15 cf cf 01 00 	mov    0x1cfcf(%rip),%rdx        # 21698 <yy_c_buf_p>
    46c9:	48 89 50 10          	mov    %rdx,0x10(%rax)
    46cd:	48 8b 05 b4 cf 01 00 	mov    0x1cfb4(%rip),%rax        # 21688 <yy_buffer_stack>
    46d4:	48 8b 15 9d cf 01 00 	mov    0x1cf9d(%rip),%rdx        # 21678 <yy_buffer_stack_top>
    46db:	48 c1 e2 03          	shl    $0x3,%rdx
    46df:	48 01 d0             	add    %rdx,%rax
    46e2:	48 8b 00             	mov    (%rax),%rax
    46e5:	8b 15 a9 cf 01 00    	mov    0x1cfa9(%rip),%edx        # 21694 <yy_n_chars>
    46eb:	89 50 1c             	mov    %edx,0x1c(%rax)
    46ee:	48 8b 05 93 cf 01 00 	mov    0x1cf93(%rip),%rax        # 21688 <yy_buffer_stack>
    46f5:	48 8b 15 7c cf 01 00 	mov    0x1cf7c(%rip),%rdx        # 21678 <yy_buffer_stack_top>
    46fc:	48 c1 e2 03          	shl    $0x3,%rdx
    4700:	48 01 c2             	add    %rax,%rdx
    4703:	48 8b 45 f8          	mov    -0x8(%rbp),%rax
    4707:	48 89 02             	mov    %rax,(%rdx)
    470a:	e8 0f 00 00 00       	call   471e <yy_load_buffer_state>
    470f:	c7 05 8f cf 01 00 01 	movl   $0x1,0x1cf8f(%rip)        # 216a8 <yy_did_buffer_switch_on_eof>
    4716:	00 00 00
    4719:	eb 01                	jmp    471c <yy_switch_to_buffer+0xf5>
    471b:	90                   	nop
    471c:	c9                   	leave
    471d:	c3                   	ret

000000000000471e <yy_load_buffer_state>:
    471e:	f3 0f 1e fa          	endbr64
    4722:	55                   	push   %rbp
    4723:	48 89 e5             	mov    %rsp,%rbp
    4726:	48 8b 05 5b cf 01 00 	mov    0x1cf5b(%rip),%rax        # 21688 <yy_buffer_stack>
    472d:	48 8b 15 44 cf 01 00 	mov    0x1cf44(%rip),%rdx        # 21678 <yy_buffer_stack_top>
    4734:	48 c1 e2 03          	shl    $0x3,%rdx
    4738:	48 01 d0             	add    %rdx,%rax
    473b:	48 8b 00             	mov    (%rax),%rax
    473e:	8b 40 1c             	mov    0x1c(%rax),%eax
    4741:	89 05 4d cf 01 00    	mov    %eax,0x1cf4d(%rip)        # 21694 <yy_n_chars>
    4747:	48 8b 05 3a cf 01 00 	mov    0x1cf3a(%rip),%rax        # 21688 <yy_buffer_stack>
    474e:	48 8b 15 23 cf 01 00 	mov    0x1cf23(%rip),%rdx        # 21678 <yy_buffer_stack_top>
    4755:	48 c1 e2 03          	shl    $0x3,%rdx
    4759:	48 01 d0             	add    %rdx,%rax
    475c:	48 8b 00             	mov    (%rax),%rax
    475f:	48 8b 40 10          	mov    0x10(%rax),%rax
    4763:	48 89 05 2e cf 01 00 	mov    %rax,0x1cf2e(%rip)        # 21698 <yy_c_buf_p>
    476a:	48 8b 05 27 cf 01 00 	mov    0x1cf27(%rip),%rax        # 21698 <yy_c_buf_p>
    4771:	48 89 05 48 c9 01 00 	mov    %rax,0x1c948(%rip)        # 210c0 <yytext>
    4778:	48 8b 05 09 cf 01 00 	mov    0x1cf09(%rip),%rax        # 21688 <yy_buffer_stack>
    477f:	48 8b 15 f2 ce 01 00 	mov    0x1cef2(%rip),%rdx        # 21678 <yy_buffer_stack_top>
    4786:	48 c1 e2 03          	shl    $0x3,%rdx
    478a:	48 01 d0             	add    %rdx,%rax
    478d:	48 8b 00             	mov    (%rax),%rax
    4790:	48 8b 00             	mov    (%rax),%rax
    4793:	48 89 05 0e c9 01 00 	mov    %rax,0x1c90e(%rip)        # 210a8 <yyin>
    479a:	48 8b 05 f7 ce 01 00 	mov    0x1cef7(%rip),%rax        # 21698 <yy_c_buf_p>
    47a1:	0f b6 00             	movzbl (%rax),%eax
    47a4:	88 05 e6 ce 01 00    	mov    %al,0x1cee6(%rip)        # 21690 <yy_hold_char>
    47aa:	90                   	nop
    47ab:	5d                   	pop    %rbp
    47ac:	c3                   	ret

00000000000047ad <yy_create_buffer>:
    47ad:	f3 0f 1e fa          	endbr64
    47b1:	55                   	push   %rbp
    47b2:	48 89 e5             	mov    %rsp,%rbp
    47b5:	48 83 ec 20          	sub    $0x20,%rsp
    47b9:	48 89 7d e8          	mov    %rdi,-0x18(%rbp)
    47bd:	89 75 e4             	mov    %esi,-0x1c(%rbp)
    47c0:	bf 40 00 00 00       	mov    $0x40,%edi
    47c5:	e8 be 09 00 00       	call   5188 <yyalloc>
    47ca:	48 89 45 f8          	mov    %rax,-0x8(%rbp)
    47ce:	48 83 7d f8 00       	cmpq   $0x0,-0x8(%rbp)
    47d3:	75 0f                	jne    47e4 <yy_create_buffer+0x37>
    47d5:	48 8d 05 bc 37 01 00 	lea    0x137bc(%rip),%rax        # 17f98 <yy_chk+0x4d8>
    47dc:	48 89 c7             	mov    %rax,%rdi
    47df:	e8 91 07 00 00       	call   4f75 <yy_fatal_error>
    47e4:	48 8b 45 f8          	mov    -0x8(%rbp),%rax
    47e8:	8b 55 e4             	mov    -0x1c(%rbp),%edx
    47eb:	89 50 18             	mov    %edx,0x18(%rax)
    47ee:	48 8b 45 f8          	mov    -0x8(%rbp),%rax
    47f2:	8b 40 18             	mov    0x18(%rax),%eax
    47f5:	83 c0 02             	add    $0x2,%eax
    47f8:	48 98                	cltq
    47fa:	48 89 c7             	mov    %rax,%rdi
    47fd:	e8 86 09 00 00       	call   5188 <yyalloc>
    4802:	48 8b 55 f8          	mov    -0x8(%rbp),%rdx
    4806:	48 89 42 08          	mov    %rax,0x8(%rdx)
    480a:	48 8b 45 f8          	mov    -0x8(%rbp),%rax
    480e:	48 8b 40 08          	mov    0x8(%rax),%rax
    4812:	48 85 c0             	test   %rax,%rax
    4815:	75 0f                	jne    4826 <yy_create_buffer+0x79>
    4817:	48 8d 05 7a 37 01 00 	lea    0x1377a(%rip),%rax        # 17f98 <yy_chk+0x4d8>
    481e:	48 89 c7             	mov    %rax,%rdi
    4821:	e8 4f 07 00 00       	call   4f75 <yy_fatal_error>
    4826:	48 8b 45 f8          	mov    -0x8(%rbp),%rax
    482a:	c7 40 20 01 00 00 00 	movl   $0x1,0x20(%rax)
    4831:	48 8b 55 e8          	mov    -0x18(%rbp),%rdx
    4835:	48 8b 45 f8          	mov    -0x8(%rbp),%rax
    4839:	48 89 d6             	mov    %rdx,%rsi
    483c:	48 89 c7             	mov    %rax,%rdi
    483f:	e8 96 00 00 00       	call   48da <yy_init_buffer>
    4844:	48 8b 45 f8          	mov    -0x8(%rbp),%rax
    4848:	c9                   	leave
    4849:	c3                   	ret

000000000000484a <yy_delete_buffer>:
    484a:	f3 0f 1e fa          	endbr64
    484e:	55                   	push   %rbp
    484f:	48 89 e5             	mov    %rsp,%rbp
    4852:	48 83 ec 10          	sub    $0x10,%rsp
    4856:	48 89 7d f8          	mov    %rdi,-0x8(%rbp)
    485a:	48 83 7d f8 00       	cmpq   $0x0,-0x8(%rbp)
    485f:	74 76                	je     48d7 <yy_delete_buffer+0x8d>
    4861:	48 8b 05 20 ce 01 00 	mov    0x1ce20(%rip),%rax        # 21688 <yy_buffer_stack>
    4868:	48 85 c0             	test   %rax,%rax
    486b:	74 1a                	je     4887 <yy_delete_buffer+0x3d>
    486d:	48 8b 05 14 ce 01 00 	mov    0x1ce14(%rip),%rax        # 21688 <yy_buffer_stack>
    4874:	48 8b 15 fd cd 01 00 	mov    0x1cdfd(%rip),%rdx        # 21678 <yy_buffer_stack_top>
    487b:	48 c1 e2 03          	shl    $0x3,%rdx
    487f:	48 01 d0             	add    %rdx,%rax
    4882:	48 8b 00             	mov    (%rax),%rax
    4885:	eb 05                	jmp    488c <yy_delete_buffer+0x42>
    4887:	b8 00 00 00 00       	mov    $0x0,%eax
    488c:	48 3b 45 f8          	cmp    -0x8(%rbp),%rax
    4890:	75 1c                	jne    48ae <yy_delete_buffer+0x64>
    4892:	48 8b 05 ef cd 01 00 	mov    0x1cdef(%rip),%rax        # 21688 <yy_buffer_stack>
    4899:	48 8b 15 d8 cd 01 00 	mov    0x1cdd8(%rip),%rdx        # 21678 <yy_buffer_stack_top>
    48a0:	48 c1 e2 03          	shl    $0x3,%rdx
    48a4:	48 01 d0             	add    %rdx,%rax
    48a7:	48 c7 00 00 00 00 00 	movq   $0x0,(%rax)
    48ae:	48 8b 45 f8          	mov    -0x8(%rbp),%rax
    48b2:	8b 40 20             	mov    0x20(%rax),%eax
    48b5:	85 c0                	test   %eax,%eax
    48b7:	74 10                	je     48c9 <yy_delete_buffer+0x7f>
    48b9:	48 8b 45 f8          	mov    -0x8(%rbp),%rax
    48bd:	48 8b 40 08          	mov    0x8(%rax),%rax
    48c1:	48 89 c7             	mov    %rax,%rdi
    48c4:	e8 06 09 00 00       	call   51cf <yyfree>
    48c9:	48 8b 45 f8          	mov    -0x8(%rbp),%rax
    48cd:	48 89 c7             	mov    %rax,%rdi
    48d0:	e8 fa 08 00 00       	call   51cf <yyfree>
    48d5:	eb 01                	jmp    48d8 <yy_delete_buffer+0x8e>
    48d7:	90                   	nop
    48d8:	c9                   	leave
    48d9:	c3                   	ret

00000000000048da <yy_init_buffer>:
    48da:	f3 0f 1e fa          	endbr64
    48de:	55                   	push   %rbp
    48df:	48 89 e5             	mov    %rsp,%rbp
    48e2:	48 83 ec 20          	sub    $0x20,%rsp
    48e6:	48 89 7d e8          	mov    %rdi,-0x18(%rbp)
    48ea:	48 89 75 e0          	mov    %rsi,-0x20(%rbp)
    48ee:	e8 ad d9 ff ff       	call   22a0 <__errno_location@plt>
    48f3:	8b 00                	mov    (%rax),%eax
    48f5:	89 45 fc             	mov    %eax,-0x4(%rbp)
    48f8:	48 8b 45 e8          	mov    -0x18(%rbp),%rax
    48fc:	48 89 c7             	mov    %rax,%rdi
    48ff:	e8 9b 00 00 00       	call   499f <yy_flush_buffer>
    4904:	48 8b 45 e8          	mov    -0x18(%rbp),%rax
    4908:	48 8b 55 e0          	mov    -0x20(%rbp),%rdx
    490c:	48 89 10             	mov    %rdx,(%rax)
    490f:	48 8b 45 e8          	mov    -0x18(%rbp),%rax
    4913:	c7 40 34 01 00 00 00 	movl   $0x1,0x34(%rax)
    491a:	48 8b 05 67 cd 01 00 	mov    0x1cd67(%rip),%rax        # 21688 <yy_buffer_stack>
    4921:	48 85 c0             	test   %rax,%rax
    4924:	74 1a                	je     4940 <yy_init_buffer+0x66>
    4926:	48 8b 05 5b cd 01 00 	mov    0x1cd5b(%rip),%rax        # 21688 <yy_buffer_stack>
    492d:	48 8b 15 44 cd 01 00 	mov    0x1cd44(%rip),%rdx        # 21678 <yy_buffer_stack_top>
    4934:	48 c1 e2 03          	shl    $0x3,%rdx
    4938:	48 01 d0             	add    %rdx,%rax
    493b:	48 8b 00             	mov    (%rax),%rax
    493e:	eb 05                	jmp    4945 <yy_init_buffer+0x6b>
    4940:	b8 00 00 00 00       	mov    $0x0,%eax
    4945:	48 3b 45 e8          	cmp    -0x18(%rbp),%rax
    4949:	74 16                	je     4961 <yy_init_buffer+0x87>
    494b:	48 8b 45 e8          	mov    -0x18(%rbp),%rax
    494f:	c7 40 2c 01 00 00 00 	movl   $0x1,0x2c(%rax)
    4956:	48 8b 45 e8          	mov    -0x18(%rbp),%rax
    495a:	c7 40 30 00 00 00 00 	movl   $0x0,0x30(%rax)
    4961:	48 83 7d e0 00       	cmpq   $0x0,-0x20(%rbp)
    4966:	74 1e                	je     4986 <yy_init_buffer+0xac>
    4968:	48 8b 45 e0          	mov    -0x20(%rbp),%rax
    496c:	48 89 c7             	mov    %rax,%rdi
    496f:	e8 8c da ff ff       	call   2400 <fileno@plt>
    4974:	89 c7                	mov    %eax,%edi
    4976:	e8 65 d9 ff ff       	call   22e0 <isatty@plt>
    497b:	85 c0                	test   %eax,%eax
    497d:	7e 07                	jle    4986 <yy_init_buffer+0xac>
    497f:	ba 01 00 00 00       	mov    $0x1,%edx
    4984:	eb 05                	jmp    498b <yy_init_buffer+0xb1>
    4986:	ba 00 00 00 00       	mov    $0x0,%edx
    498b:	48 8b 45 e8          	mov    -0x18(%rbp),%rax
    498f:	89 50 24             	mov    %edx,0x24(%rax)
    4992:	e8 09 d9 ff ff       	call   22a0 <__errno_location@plt>
    4997:	8b 55 fc             	mov    -0x4(%rbp),%edx
    499a:	89 10                	mov    %edx,(%rax)
    499c:	90                   	nop
    499d:	c9                   	leave
    499e:	c3                   	ret

000000000000499f <yy_flush_buffer>:
    499f:	f3 0f 1e fa          	endbr64
    49a3:	55                   	push   %rbp
    49a4:	48 89 e5             	mov    %rsp,%rbp
    49a7:	48 83 ec 08          	sub    $0x8,%rsp
    49ab:	48 89 7d f8          	mov    %rdi,-0x8(%rbp)
    49af:	48 83 7d f8 00       	cmpq   $0x0,-0x8(%rbp)
    49b4:	0f 84 83 00 00 00    	je     4a3d <yy_flush_buffer+0x9e>
    49ba:	48 8b 45 f8          	mov    -0x8(%rbp),%rax
    49be:	c7 40 1c 00 00 00 00 	movl   $0x0,0x1c(%rax)
    49c5:	48 8b 45 f8          	mov    -0x8(%rbp),%rax
    49c9:	48 8b 40 08          	mov    0x8(%rax),%rax
    49cd:	c6 00 00             	movb   $0x0,(%rax)
    49d0:	48 8b 45 f8          	mov    -0x8(%rbp),%rax
    49d4:	48 8b 40 08          	mov    0x8(%rax),%rax
    49d8:	48 83 c0 01          	add    $0x1,%rax
    49dc:	c6 00 00             	movb   $0x0,(%rax)
    49df:	48 8b 45 f8          	mov    -0x8(%rbp),%rax
    49e3:	48 8b 50 08          	mov    0x8(%rax),%rdx
    49e7:	48 8b 45 f8          	mov    -0x8(%rbp),%rax
    49eb:	48 89 50 10          	mov    %rdx,0x10(%rax)
    49ef:	48 8b 45 f8          	mov    -0x8(%rbp),%rax
    49f3:	c7 40 28 01 00 00 00 	movl   $0x1,0x28(%rax)
    49fa:	48 8b 45 f8          	mov    -0x8(%rbp),%rax
    49fe:	c7 40 38 00 00 00 00 	movl   $0x0,0x38(%rax)
    4a05:	48 8b 05 7c cc 01 00 	mov    0x1cc7c(%rip),%rax        # 21688 <yy_buffer_stack>
    4a0c:	48 85 c0             	test   %rax,%rax
    4a0f:	74 1a                	je     4a2b <yy_flush_buffer+0x8c>
    4a11:	48 8b 05 70 cc 01 00 	mov    0x1cc70(%rip),%rax        # 21688 <yy_buffer_stack>
    4a18:	48 8b 15 59 cc 01 00 	mov    0x1cc59(%rip),%rdx        # 21678 <yy_buffer_stack_top>
    4a1f:	48 c1 e2 03          	shl    $0x3,%rdx
    4a23:	48 01 d0             	add    %rdx,%rax
    4a26:	48 8b 00             	mov    (%rax),%rax
    4a29:	eb 05                	jmp    4a30 <yy_flush_buffer+0x91>
    4a2b:	b8 00 00 00 00       	mov    $0x0,%eax
    4a30:	48 3b 45 f8          	cmp    -0x8(%rbp),%rax
    4a34:	75 08                	jne    4a3e <yy_flush_buffer+0x9f>
    4a36:	e8 e3 fc ff ff       	call   471e <yy_load_buffer_state>
    4a3b:	eb 01                	jmp    4a3e <yy_flush_buffer+0x9f>
    4a3d:	90                   	nop
    4a3e:	c9                   	leave
    4a3f:	c3                   	ret

0000000000004a40 <yypush_buffer_state>:
    4a40:	f3 0f 1e fa          	endbr64
    4a44:	55                   	push   %rbp
    4a45:	48 89 e5             	mov    %rsp,%rbp
    4a48:	48 83 ec 10          	sub    $0x10,%rsp
    4a4c:	48 89 7d f8          	mov    %rdi,-0x8(%rbp)
    4a50:	48 83 7d f8 00       	cmpq   $0x0,-0x8(%rbp)
    4a55:	0f 84 ea 00 00 00    	je     4b45 <yypush_buffer_state+0x105>
    4a5b:	e8 cb 01 00 00       	call   4c2b <yyensure_buffer_stack>
    4a60:	48 8b 05 21 cc 01 00 	mov    0x1cc21(%rip),%rax        # 21688 <yy_buffer_stack>
    4a67:	48 85 c0             	test   %rax,%rax
    4a6a:	74 71                	je     4add <yypush_buffer_state+0x9d>
    4a6c:	48 8b 05 15 cc 01 00 	mov    0x1cc15(%rip),%rax        # 21688 <yy_buffer_stack>
    4a73:	48 8b 15 fe cb 01 00 	mov    0x1cbfe(%rip),%rdx        # 21678 <yy_buffer_stack_top>
    4a7a:	48 c1 e2 03          	shl    $0x3,%rdx
    4a7e:	48 01 d0             	add    %rdx,%rax
    4a81:	48 8b 00             	mov    (%rax),%rax
    4a84:	48 85 c0             	test   %rax,%rax
    4a87:	74 54                	je     4add <yypush_buffer_state+0x9d>
    4a89:	48 8b 05 08 cc 01 00 	mov    0x1cc08(%rip),%rax        # 21698 <yy_c_buf_p>
    4a90:	0f b6 15 f9 cb 01 00 	movzbl 0x1cbf9(%rip),%edx        # 21690 <yy_hold_char>
    4a97:	88 10                	mov    %dl,(%rax)
    4a99:	48 8b 05 e8 cb 01 00 	mov    0x1cbe8(%rip),%rax        # 21688 <yy_buffer_stack>
    4aa0:	48 8b 15 d1 cb 01 00 	mov    0x1cbd1(%rip),%rdx        # 21678 <yy_buffer_stack_top>
    4aa7:	48 c1 e2 03          	shl    $0x3,%rdx
    4aab:	48 01 d0             	add    %rdx,%rax
    4aae:	48 8b 00             	mov    (%rax),%rax
    4ab1:	48 8b 15 e0 cb 01 00 	mov    0x1cbe0(%rip),%rdx        # 21698 <yy_c_buf_p>
    4ab8:	48 89 50 10          	mov    %rdx,0x10(%rax)
    4abc:	48 8b 05 c5 cb 01 00 	mov    0x1cbc5(%rip),%rax        # 21688 <yy_buffer_stack>
    4ac3:	48 8b 15 ae cb 01 00 	mov    0x1cbae(%rip),%rdx        # 21678 <yy_buffer_stack_top>
    4aca:	48 c1 e2 03          	shl    $0x3,%rdx
    4ace:	48 01 d0             	add    %rdx,%rax
    4ad1:	48 8b 00             	mov    (%rax),%rax
    4ad4:	8b 15 ba cb 01 00    	mov    0x1cbba(%rip),%edx        # 21694 <yy_n_chars>
    4ada:	89 50 1c             	mov    %edx,0x1c(%rax)
    4add:	48 8b 05 a4 cb 01 00 	mov    0x1cba4(%rip),%rax        # 21688 <yy_buffer_stack>
    4ae4:	48 85 c0             	test   %rax,%rax
    4ae7:	74 2f                	je     4b18 <yypush_buffer_state+0xd8>
    4ae9:	48 8b 05 98 cb 01 00 	mov    0x1cb98(%rip),%rax        # 21688 <yy_buffer_stack>
    4af0:	48 8b 15 81 cb 01 00 	mov    0x1cb81(%rip),%rdx        # 21678 <yy_buffer_stack_top>
    4af7:	48 c1 e2 03          	shl    $0x3,%rdx
    4afb:	48 01 d0             	add    %rdx,%rax
    4afe:	48 8b 00             	mov    (%rax),%rax
    4b01:	48 85 c0             	test   %rax,%rax
    4b04:	74 12                	je     4b18 <yypush_buffer_state+0xd8>
    4b06:	48 8b 05 6b cb 01 00 	mov    0x1cb6b(%rip),%rax        # 21678 <yy_buffer_stack_top>
    4b0d:	48 83 c0 01          	add    $0x1,%rax
    4b11:	48 89 05 60 cb 01 00 	mov    %rax,0x1cb60(%rip)        # 21678 <yy_buffer_stack_top>
    4b18:	48 8b 05 69 cb 01 00 	mov    0x1cb69(%rip),%rax        # 21688 <yy_buffer_stack>
    4b1f:	48 8b 15 52 cb 01 00 	mov    0x1cb52(%rip),%rdx        # 21678 <yy_buffer_stack_top>
    4b26:	48 c1 e2 03          	shl    $0x3,%rdx
    4b2a:	48 01 c2             	add    %rax,%rdx
    4b2d:	48 8b 45 f8          	mov    -0x8(%rbp),%rax
    4b31:	48 89 02             	mov    %rax,(%rdx)
    4b34:	e8 e5 fb ff ff       	call   471e <yy_load_buffer_state>
    4b39:	c7 05 65 cb 01 00 01 	movl   $0x1,0x1cb65(%rip)        # 216a8 <yy_did_buffer_switch_on_eof>
    4b40:	00 00 00
    4b43:	eb 01                	jmp    4b46 <yypush_buffer_state+0x106>
    4b45:	90                   	nop
    4b46:	c9                   	leave
    4b47:	c3                   	ret

0000000000004b48 <yypop_buffer_state>:
    4b48:	f3 0f 1e fa          	endbr64
    4b4c:	55                   	push   %rbp
    4b4d:	48 89 e5             	mov    %rsp,%rbp
    4b50:	48 8b 05 31 cb 01 00 	mov    0x1cb31(%rip),%rax        # 21688 <yy_buffer_stack>
    4b57:	48 85 c0             	test   %rax,%rax
    4b5a:	0f 84 c8 00 00 00    	je     4c28 <yypop_buffer_state+0xe0>
    4b60:	48 8b 05 21 cb 01 00 	mov    0x1cb21(%rip),%rax        # 21688 <yy_buffer_stack>
    4b67:	48 8b 15 0a cb 01 00 	mov    0x1cb0a(%rip),%rdx        # 21678 <yy_buffer_stack_top>
    4b6e:	48 c1 e2 03          	shl    $0x3,%rdx
    4b72:	48 01 d0             	add    %rdx,%rax
    4b75:	48 8b 00             	mov    (%rax),%rax
    4b78:	48 85 c0             	test   %rax,%rax
    4b7b:	0f 84 a7 00 00 00    	je     4c28 <yypop_buffer_state+0xe0>
    4b81:	48 8b 05 00 cb 01 00 	mov    0x1cb00(%rip),%rax        # 21688 <yy_buffer_stack>
    4b88:	48 85 c0             	test   %rax,%rax
    4b8b:	74 1a                	je     4ba7 <yypop_buffer_state+0x5f>
    4b8d:	48 8b 05 f4 ca 01 00 	mov    0x1caf4(%rip),%rax        # 21688 <yy_buffer_stack>
    4b94:	48 8b 15 dd ca 01 00 	mov    0x1cadd(%rip),%rdx        # 21678 <yy_buffer_stack_top>
    4b9b:	48 c1 e2 03          	shl    $0x3,%rdx
    4b9f:	48 01 d0             	add    %rdx,%rax
    4ba2:	48 8b 00             	mov    (%rax),%rax
    4ba5:	eb 05                	jmp    4bac <yypop_buffer_state+0x64>
    4ba7:	b8 00 00 00 00       	mov    $0x0,%eax
    4bac:	48 89 c7             	mov    %rax,%rdi
    4baf:	e8 96 fc ff ff       	call   484a <yy_delete_buffer>
    4bb4:	48 8b 05 cd ca 01 00 	mov    0x1cacd(%rip),%rax        # 21688 <yy_buffer_stack>
    4bbb:	48 8b 15 b6 ca 01 00 	mov    0x1cab6(%rip),%rdx        # 21678 <yy_buffer_stack_top>
    4bc2:	48 c1 e2 03          	shl    $0x3,%rdx
    4bc6:	48 01 d0             	add    %rdx,%rax
    4bc9:	48 c7 00 00 00 00 00 	movq   $0x0,(%rax)
    4bd0:	48 8b 05 a1 ca 01 00 	mov    0x1caa1(%rip),%rax        # 21678 <yy_buffer_stack_top>
    4bd7:	48 85 c0             	test   %rax,%rax
    4bda:	74 12                	je     4bee <yypop_buffer_state+0xa6>
    4bdc:	48 8b 05 95 ca 01 00 	mov    0x1ca95(%rip),%rax        # 21678 <yy_buffer_stack_top>
    4be3:	48 83 e8 01          	sub    $0x1,%rax
    4be7:	48 89 05 8a ca 01 00 	mov    %rax,0x1ca8a(%rip)        # 21678 <yy_buffer_stack_top>
    4bee:	48 8b 05 93 ca 01 00 	mov    0x1ca93(%rip),%rax        # 21688 <yy_buffer_stack>
    4bf5:	48 85 c0             	test   %rax,%rax
    4bf8:	74 2f                	je     4c29 <yypop_buffer_state+0xe1>
    4bfa:	48 8b 05 87 ca 01 00 	mov    0x1ca87(%rip),%rax        # 21688 <yy_buffer_stack>
    4c01:	48 8b 15 70 ca 01 00 	mov    0x1ca70(%rip),%rdx        # 21678 <yy_buffer_stack_top>
    4c08:	48 c1 e2 03          	shl    $0x3,%rdx
    4c0c:	48 01 d0             	add    %rdx,%rax
    4c0f:	48 8b 00             	mov    (%rax),%rax
    4c12:	48 85 c0             	test   %rax,%rax
    4c15:	74 12                	je     4c29 <yypop_buffer_state+0xe1>
    4c17:	e8 02 fb ff ff       	call   471e <yy_load_buffer_state>
    4c1c:	c7 05 82 ca 01 00 01 	movl   $0x1,0x1ca82(%rip)        # 216a8 <yy_did_buffer_switch_on_eof>
    4c23:	00 00 00
    4c26:	eb 01                	jmp    4c29 <yypop_buffer_state+0xe1>
    4c28:	90                   	nop
    4c29:	5d                   	pop    %rbp
    4c2a:	c3                   	ret

0000000000004c2b <yyensure_buffer_stack>:
    4c2b:	f3 0f 1e fa          	endbr64
    4c2f:	55                   	push   %rbp
    4c30:	48 89 e5             	mov    %rsp,%rbp
    4c33:	48 83 ec 10          	sub    $0x10,%rsp
    4c37:	48 8b 05 4a ca 01 00 	mov    0x1ca4a(%rip),%rax        # 21688 <yy_buffer_stack>
    4c3e:	48 85 c0             	test   %rax,%rax
    4c41:	75 75                	jne    4cb8 <yyensure_buffer_stack+0x8d>
    4c43:	48 c7 45 f8 01 00 00 	movq   $0x1,-0x8(%rbp)
    4c4a:	00
    4c4b:	48 8b 45 f8          	mov    -0x8(%rbp),%rax
    4c4f:	48 c1 e0 03          	shl    $0x3,%rax
    4c53:	48 89 c7             	mov    %rax,%rdi
    4c56:	e8 2d 05 00 00       	call   5188 <yyalloc>
    4c5b:	48 89 05 26 ca 01 00 	mov    %rax,0x1ca26(%rip)        # 21688 <yy_buffer_stack>
    4c62:	48 8b 05 1f ca 01 00 	mov    0x1ca1f(%rip),%rax        # 21688 <yy_buffer_stack>
    4c69:	48 85 c0             	test   %rax,%rax
    4c6c:	75 0f                	jne    4c7d <yyensure_buffer_stack+0x52>
    4c6e:	48 8d 05 53 33 01 00 	lea    0x13353(%rip),%rax        # 17fc8 <yy_chk+0x508>
    4c75:	48 89 c7             	mov    %rax,%rdi
    4c78:	e8 f8 02 00 00       	call   4f75 <yy_fatal_error>
    4c7d:	48 8b 45 f8          	mov    -0x8(%rbp),%rax
    4c81:	48 8d 14 c5 00 00 00 	lea    0x0(,%rax,8),%rdx
    4c88:	00
    4c89:	48 8b 05 f8 c9 01 00 	mov    0x1c9f8(%rip),%rax        # 21688 <yy_buffer_stack>
    4c90:	be 00 00 00 00       	mov    $0x0,%esi
    4c95:	48 89 c7             	mov    %rax,%rdi
    4c98:	e8 d3 d6 ff ff       	call   2370 <memset@plt>
    4c9d:	48 8b 45 f8          	mov    -0x8(%rbp),%rax
    4ca1:	48 89 05 d8 c9 01 00 	mov    %rax,0x1c9d8(%rip)        # 21680 <yy_buffer_stack_max>
    4ca8:	48 c7 05 c5 c9 01 00 	movq   $0x0,0x1c9c5(%rip)        # 21678 <yy_buffer_stack_top>
    4caf:	00 00 00 00
    4cb3:	e9 ae 00 00 00       	jmp    4d66 <yyensure_buffer_stack+0x13b>
    4cb8:	48 8b 05 c1 c9 01 00 	mov    0x1c9c1(%rip),%rax        # 21680 <yy_buffer_stack_max>
    4cbf:	48 83 e8 01          	sub    $0x1,%rax
    4cc3:	48 8b 15 ae c9 01 00 	mov    0x1c9ae(%rip),%rdx        # 21678 <yy_buffer_stack_top>
    4cca:	48 39 c2             	cmp    %rax,%rdx
    4ccd:	0f 82 93 00 00 00    	jb     4d66 <yyensure_buffer_stack+0x13b>
    4cd3:	48 c7 45 f0 08 00 00 	movq   $0x8,-0x10(%rbp)
    4cda:	00
    4cdb:	48 8b 15 9e c9 01 00 	mov    0x1c99e(%rip),%rdx        # 21680 <yy_buffer_stack_max>
    4ce2:	48 8b 45 f0          	mov    -0x10(%rbp),%rax
    4ce6:	48 01 d0             	add    %rdx,%rax
    4ce9:	48 89 45 f8          	mov    %rax,-0x8(%rbp)
    4ced:	48 8b 45 f8          	mov    -0x8(%rbp),%rax
    4cf1:	48 8d 14 c5 00 00 00 	lea    0x0(,%rax,8),%rdx
    4cf8:	00
    4cf9:	48 8b 05 88 c9 01 00 	mov    0x1c988(%rip),%rax        # 21688 <yy_buffer_stack>
    4d00:	48 89 d6             	mov    %rdx,%rsi
    4d03:	48 89 c7             	mov    %rax,%rdi
    4d06:	e8 9b 04 00 00       	call   51a6 <yyrealloc>
    4d0b:	48 89 05 76 c9 01 00 	mov    %rax,0x1c976(%rip)        # 21688 <yy_buffer_stack>
    4d12:	48 8b 05 6f c9 01 00 	mov    0x1c96f(%rip),%rax        # 21688 <yy_buffer_stack>
    4d19:	48 85 c0             	test   %rax,%rax
    4d1c:	75 0f                	jne    4d2d <yyensure_buffer_stack+0x102>
    4d1e:	48 8d 05 a3 32 01 00 	lea    0x132a3(%rip),%rax        # 17fc8 <yy_chk+0x508>
    4d25:	48 89 c7             	mov    %rax,%rdi
    4d28:	e8 48 02 00 00       	call   4f75 <yy_fatal_error>
    4d2d:	48 8b 45 f0          	mov    -0x10(%rbp),%rax
    4d31:	48 8d 14 c5 00 00 00 	lea    0x0(,%rax,8),%rdx
    4d38:	00
    4d39:	48 8b 05 48 c9 01 00 	mov    0x1c948(%rip),%rax        # 21688 <yy_buffer_stack>
    4d40:	48 8b 0d 39 c9 01 00 	mov    0x1c939(%rip),%rcx        # 21680 <yy_buffer_stack_max>
    4d47:	48 c1 e1 03          	shl    $0x3,%rcx
    4d4b:	48 01 c8             	add    %rcx,%rax
    4d4e:	be 00 00 00 00       	mov    $0x0,%esi
    4d53:	48 89 c7             	mov    %rax,%rdi
    4d56:	e8 15 d6 ff ff       	call   2370 <memset@plt>
    4d5b:	48 8b 45 f8          	mov    -0x8(%rbp),%rax
    4d5f:	48 89 05 1a c9 01 00 	mov    %rax,0x1c91a(%rip)        # 21680 <yy_buffer_stack_max>
    4d66:	c9                   	leave
    4d67:	c3                   	ret

0000000000004d68 <yy_scan_buffer>:
    4d68:	f3 0f 1e fa          	endbr64
    4d6c:	55                   	push   %rbp
    4d6d:	48 89 e5             	mov    %rsp,%rbp
    4d70:	48 83 ec 20          	sub    $0x20,%rsp
    4d74:	48 89 7d e8          	mov    %rdi,-0x18(%rbp)
    4d78:	48 89 75 e0          	mov    %rsi,-0x20(%rbp)
    4d7c:	48 83 7d e0 01       	cmpq   $0x1,-0x20(%rbp)
    4d81:	76 2c                	jbe    4daf <yy_scan_buffer+0x47>
    4d83:	48 8b 45 e0          	mov    -0x20(%rbp),%rax
    4d87:	48 8d 50 fe          	lea    -0x2(%rax),%rdx
    4d8b:	48 8b 45 e8          	mov    -0x18(%rbp),%rax
    4d8f:	48 01 d0             	add    %rdx,%rax
    4d92:	0f b6 00             	movzbl (%rax),%eax
    4d95:	84 c0                	test   %al,%al
    4d97:	75 16                	jne    4daf <yy_scan_buffer+0x47>
    4d99:	48 8b 45 e0          	mov    -0x20(%rbp),%rax
    4d9d:	48 8d 50 ff          	lea    -0x1(%rax),%rdx
    4da1:	48 8b 45 e8          	mov    -0x18(%rbp),%rax
    4da5:	48 01 d0             	add    %rdx,%rax
    4da8:	0f b6 00             	movzbl (%rax),%eax
    4dab:	84 c0                	test   %al,%al
    4dad:	74 0a                	je     4db9 <yy_scan_buffer+0x51>
    4daf:	b8 00 00 00 00       	mov    $0x0,%eax
    4db4:	e9 b0 00 00 00       	jmp    4e69 <yy_scan_buffer+0x101>
    4db9:	bf 40 00 00 00       	mov    $0x40,%edi
    4dbe:	e8 c5 03 00 00       	call   5188 <yyalloc>
    4dc3:	48 89 45 f8          	mov    %rax,-0x8(%rbp)
    4dc7:	48 83 7d f8 00       	cmpq   $0x0,-0x8(%rbp)
    4dcc:	75 0f                	jne    4ddd <yy_scan_buffer+0x75>
    4dce:	48 8d 05 2b 32 01 00 	lea    0x1322b(%rip),%rax        # 18000 <yy_chk+0x540>
    4dd5:	48 89 c7             	mov    %rax,%rdi
    4dd8:	e8 98 01 00 00       	call   4f75 <yy_fatal_error>
    4ddd:	48 8b 45 e0          	mov    -0x20(%rbp),%rax
    4de1:	83 e8 02             	sub    $0x2,%eax
    4de4:	89 c2                	mov    %eax,%edx
    4de6:	48 8b 45 f8          	mov    -0x8(%rbp),%rax
    4dea:	89 50 18             	mov    %edx,0x18(%rax)
    4ded:	48 8b 45 f8          	mov    -0x8(%rbp),%rax
    4df1:	48 8b 55 e8          	mov    -0x18(%rbp),%rdx
    4df5:	48 89 50 08          	mov    %rdx,0x8(%rax)
    4df9:	48 8b 45 f8          	mov    -0x8(%rbp),%rax
    4dfd:	48 8b 50 08          	mov    0x8(%rax),%rdx
    4e01:	48 8b 45 f8          	mov    -0x8(%rbp),%rax
    4e05:	48 89 50 10          	mov    %rdx,0x10(%rax)
    4e09:	48 8b 45 f8          	mov    -0x8(%rbp),%rax
    4e0d:	c7 40 20 00 00 00 00 	movl   $0x0,0x20(%rax)
    4e14:	48 8b 45 f8          	mov    -0x8(%rbp),%rax
    4e18:	48 c7 00 00 00 00 00 	movq   $0x0,(%rax)
    4e1f:	48 8b 45 f8          	mov    -0x8(%rbp),%rax
    4e23:	8b 50 18             	mov    0x18(%rax),%edx
    4e26:	48 8b 45 f8          	mov    -0x8(%rbp),%rax
    4e2a:	89 50 1c             	mov    %edx,0x1c(%rax)
    4e2d:	48 8b 45 f8          	mov    -0x8(%rbp),%rax
    4e31:	c7 40 24 00 00 00 00 	movl   $0x0,0x24(%rax)
    4e38:	48 8b 45 f8          	mov    -0x8(%rbp),%rax
    4e3c:	c7 40 28 01 00 00 00 	movl   $0x1,0x28(%rax)
    4e43:	48 8b 45 f8          	mov    -0x8(%rbp),%rax
    4e47:	c7 40 34 00 00 00 00 	movl   $0x0,0x34(%rax)
    4e4e:	48 8b 45 f8          	mov    -0x8(%rbp),%rax
    4e52:	c7 40 38 00 00 00 00 	movl   $0x0,0x38(%rax)
    4e59:	48 8b 45 f8          	mov    -0x8(%rbp),%rax
    4e5d:	48 89 c7             	mov    %rax,%rdi
    4e60:	e8 c2 f7 ff ff       	call   4627 <yy_switch_to_buffer>
    4e65:	48 8b 45 f8          	mov    -0x8(%rbp),%rax
    4e69:	c9                   	leave
    4e6a:	c3                   	ret

0000000000004e6b <yy_scan_string>:
    4e6b:	f3 0f 1e fa          	endbr64
    4e6f:	55                   	push   %rbp
    4e70:	48 89 e5             	mov    %rsp,%rbp
    4e73:	48 83 ec 10          	sub    $0x10,%rsp
    4e77:	48 89 7d f8          	mov    %rdi,-0x8(%rbp)
    4e7b:	48 8b 45 f8          	mov    -0x8(%rbp),%rax
    4e7f:	48 89 c7             	mov    %rax,%rdi
    4e82:	e8 99 d4 ff ff       	call   2320 <strlen@plt>
    4e87:	89 c2                	mov    %eax,%edx
    4e89:	48 8b 45 f8          	mov    -0x8(%rbp),%rax
    4e8d:	89 d6                	mov    %edx,%esi
    4e8f:	48 89 c7             	mov    %rax,%rdi
    4e92:	e8 02 00 00 00       	call   4e99 <yy_scan_bytes>
    4e97:	c9                   	leave
    4e98:	c3                   	ret

0000000000004e99 <yy_scan_bytes>:
    4e99:	f3 0f 1e fa          	endbr64
    4e9d:	55                   	push   %rbp
    4e9e:	48 89 e5             	mov    %rsp,%rbp
    4ea1:	48 83 ec 30          	sub    $0x30,%rsp
    4ea5:	48 89 7d d8          	mov    %rdi,-0x28(%rbp)
    4ea9:	89 75 d4             	mov    %esi,-0x2c(%rbp)
    4eac:	8b 45 d4             	mov    -0x2c(%rbp),%eax
    4eaf:	83 c0 02             	add    $0x2,%eax
    4eb2:	48 98                	cltq
    4eb4:	48 89 45 e8          	mov    %rax,-0x18(%rbp)
    4eb8:	48 8b 45 e8          	mov    -0x18(%rbp),%rax
    4ebc:	48 89 c7             	mov    %rax,%rdi
    4ebf:	e8 c4 02 00 00       	call   5188 <yyalloc>
    4ec4:	48 89 45 f0          	mov    %rax,-0x10(%rbp)
    4ec8:	48 83 7d f0 00       	cmpq   $0x0,-0x10(%rbp)
    4ecd:	75 0f                	jne    4ede <yy_scan_bytes+0x45>
    4ecf:	48 8d 05 5a 31 01 00 	lea    0x1315a(%rip),%rax        # 18030 <yy_chk+0x570>
    4ed6:	48 89 c7             	mov    %rax,%rdi
    4ed9:	e8 97 00 00 00       	call   4f75 <yy_fatal_error>
    4ede:	c7 45 e4 00 00 00 00 	movl   $0x0,-0x1c(%rbp)
    4ee5:	eb 23                	jmp    4f0a <yy_scan_bytes+0x71>
    4ee7:	8b 45 e4             	mov    -0x1c(%rbp),%eax
    4eea:	48 63 d0             	movslq %eax,%rdx
    4eed:	48 8b 45 d8          	mov    -0x28(%rbp),%rax
    4ef1:	48 01 d0             	add    %rdx,%rax
    4ef4:	8b 55 e4             	mov    -0x1c(%rbp),%edx
    4ef7:	48 63 ca             	movslq %edx,%rcx
    4efa:	48 8b 55 f0          	mov    -0x10(%rbp),%rdx
    4efe:	48 01 ca             	add    %rcx,%rdx
    4f01:	0f b6 00             	movzbl (%rax),%eax
    4f04:	88 02                	mov    %al,(%rdx)
    4f06:	83 45 e4 01          	addl   $0x1,-0x1c(%rbp)
    4f0a:	8b 45 e4             	mov    -0x1c(%rbp),%eax
    4f0d:	3b 45 d4             	cmp    -0x2c(%rbp),%eax
    4f10:	7c d5                	jl     4ee7 <yy_scan_bytes+0x4e>
    4f12:	8b 45 d4             	mov    -0x2c(%rbp),%eax
    4f15:	48 98                	cltq
    4f17:	48 8d 50 01          	lea    0x1(%rax),%rdx
    4f1b:	48 8b 45 f0          	mov    -0x10(%rbp),%rax
    4f1f:	48 01 d0             	add    %rdx,%rax
    4f22:	c6 00 00             	movb   $0x0,(%rax)
    4f25:	8b 55 d4             	mov    -0x2c(%rbp),%edx
    4f28:	48 63 ca             	movslq %edx,%rcx
    4f2b:	48 8b 55 f0          	mov    -0x10(%rbp),%rdx
    4f2f:	48 01 ca             	add    %rcx,%rdx
    4f32:	0f b6 00             	movzbl (%rax),%eax
    4f35:	88 02                	mov    %al,(%rdx)
    4f37:	48 8b 55 e8          	mov    -0x18(%rbp),%rdx
    4f3b:	48 8b 45 f0          	mov    -0x10(%rbp),%rax
    4f3f:	48 89 d6             	mov    %rdx,%rsi
    4f42:	48 89 c7             	mov    %rax,%rdi
    4f45:	e8 1e fe ff ff       	call   4d68 <yy_scan_buffer>
    4f4a:	48 89 45 f8          	mov    %rax,-0x8(%rbp)
    4f4e:	48 83 7d f8 00       	cmpq   $0x0,-0x8(%rbp)
    4f53:	75 0f                	jne    4f64 <yy_scan_bytes+0xcb>
    4f55:	48 8d 05 fd 30 01 00 	lea    0x130fd(%rip),%rax        # 18059 <yy_chk+0x599>
    4f5c:	48 89 c7             	mov    %rax,%rdi
    4f5f:	e8 11 00 00 00       	call   4f75 <yy_fatal_error>
    4f64:	48 8b 45 f8          	mov    -0x8(%rbp),%rax
    4f68:	c7 40 20 01 00 00 00 	movl   $0x1,0x20(%rax)
    4f6f:	48 8b 45 f8          	mov    -0x8(%rbp),%rax
    4f73:	c9                   	leave
    4f74:	c3                   	ret

0000000000004f75 <yy_fatal_error>:
    4f75:	f3 0f 1e fa          	endbr64
    4f79:	55                   	push   %rbp
    4f7a:	48 89 e5             	mov    %rsp,%rbp
    4f7d:	48 83 ec 10          	sub    $0x10,%rsp
    4f81:	48 89 7d f8          	mov    %rdi,-0x8(%rbp)
    4f85:	48 8b 05 d4 c0 01 00 	mov    0x1c0d4(%rip),%rax        # 21060 <stderr@GLIBC_2.2.5>
    4f8c:	48 8b 55 f8          	mov    -0x8(%rbp),%rdx
    4f90:	48 8d 0d e0 30 01 00 	lea    0x130e0(%rip),%rcx        # 18077 <yy_chk+0x5b7>
    4f97:	48 89 ce             	mov    %rcx,%rsi
    4f9a:	48 89 c7             	mov    %rax,%rdi
    4f9d:	b8 00 00 00 00       	mov    $0x0,%eax
    4fa2:	e8 29 d4 ff ff       	call   23d0 <fprintf@plt>
    4fa7:	bf 02 00 00 00       	mov    $0x2,%edi
    4fac:	e8 cf d4 ff ff       	call   2480 <exit@plt>

0000000000004fb1 <yyget_lineno>:
    4fb1:	f3 0f 1e fa          	endbr64
    4fb5:	55                   	push   %rbp
    4fb6:	48 89 e5             	mov    %rsp,%rbp
    4fb9:	8b 05 5d c0 01 00    	mov    0x1c05d(%rip),%eax        # 2101c <yylineno>
    4fbf:	5d                   	pop    %rbp
    4fc0:	c3                   	ret

0000000000004fc1 <yyget_in>:
    4fc1:	f3 0f 1e fa          	endbr64
    4fc5:	55                   	push   %rbp
    4fc6:	48 89 e5             	mov    %rsp,%rbp
    4fc9:	48 8b 05 d8 c0 01 00 	mov    0x1c0d8(%rip),%rax        # 210a8 <yyin>
    4fd0:	5d                   	pop    %rbp
    4fd1:	c3                   	ret

0000000000004fd2 <yyget_out>:
    4fd2:	f3 0f 1e fa          	endbr64
    4fd6:	55                   	push   %rbp
    4fd7:	48 89 e5             	mov    %rsp,%rbp
    4fda:	48 8b 05 cf c0 01 00 	mov    0x1c0cf(%rip),%rax        # 210b0 <yyout>
    4fe1:	5d                   	pop    %rbp
    4fe2:	c3                   	ret

0000000000004fe3 <yyget_leng>:
    4fe3:	f3 0f 1e fa          	endbr64
    4fe7:	55                   	push   %rbp
    4fe8:	48 89 e5             	mov    %rsp,%rbp
    4feb:	8b 05 af c0 01 00    	mov    0x1c0af(%rip),%eax        # 210a0 <yyleng>
    4ff1:	5d                   	pop    %rbp
    4ff2:	c3                   	ret

0000000000004ff3 <yyget_text>:
    4ff3:	f3 0f 1e fa          	endbr64
    4ff7:	55                   	push   %rbp
    4ff8:	48 89 e5             	mov    %rsp,%rbp
    4ffb:	48 8b 05 be c0 01 00 	mov    0x1c0be(%rip),%rax        # 210c0 <yytext>
    5002:	5d                   	pop    %rbp
    5003:	c3                   	ret

0000000000005004 <yyset_lineno>:
    5004:	f3 0f 1e fa          	endbr64
    5008:	55                   	push   %rbp
    5009:	48 89 e5             	mov    %rsp,%rbp
    500c:	89 7d fc             	mov    %edi,-0x4(%rbp)
    500f:	8b 45 fc             	mov    -0x4(%rbp),%eax
    5012:	89 05 04 c0 01 00    	mov    %eax,0x1c004(%rip)        # 2101c <yylineno>
    5018:	90                   	nop
    5019:	5d                   	pop    %rbp
    501a:	c3                   	ret

000000000000501b <yyset_in>:
    501b:	f3 0f 1e fa          	endbr64
    501f:	55                   	push   %rbp
    5020:	48 89 e5             	mov    %rsp,%rbp
    5023:	48 89 7d f8          	mov    %rdi,-0x8(%rbp)
    5027:	48 8b 45 f8          	mov    -0x8(%rbp),%rax
    502b:	48 89 05 76 c0 01 00 	mov    %rax,0x1c076(%rip)        # 210a8 <yyin>
    5032:	90                   	nop
    5033:	5d                   	pop    %rbp
    5034:	c3                   	ret

0000000000005035 <yyset_out>:
    5035:	f3 0f 1e fa          	endbr64
    5039:	55                   	push   %rbp
    503a:	48 89 e5             	mov    %rsp,%rbp
    503d:	48 89 7d f8          	mov    %rdi,-0x8(%rbp)
    5041:	48 8b 45 f8          	mov    -0x8(%rbp),%rax
    5045:	48 89 05 64 c0 01 00 	mov    %rax,0x1c064(%rip)        # 210b0 <yyout>
    504c:	90                   	nop
    504d:	5d                   	pop    %rbp
    504e:	c3                   	ret

000000000000504f <yyget_debug>:
    504f:	f3 0f 1e fa          	endbr64
    5053:	55                   	push   %rbp
    5054:	48 89 e5             	mov    %rsp,%rbp
    5057:	8b 05 5b c0 01 00    	mov    0x1c05b(%rip),%eax        # 210b8 <yy_flex_debug>
    505d:	5d                   	pop    %rbp
    505e:	c3                   	ret

000000000000505f <yyset_debug>:
    505f:	f3 0f 1e fa          	endbr64
    5063:	55                   	push   %rbp
    5064:	48 89 e5             	mov    %rsp,%rbp
    5067:	89 7d fc             	mov    %edi,-0x4(%rbp)
    506a:	8b 45 fc             	mov    -0x4(%rbp),%eax
    506d:	89 05 45 c0 01 00    	mov    %eax,0x1c045(%rip)        # 210b8 <yy_flex_debug>
    5073:	90                   	nop
    5074:	5d                   	pop    %rbp
    5075:	c3                   	ret

0000000000005076 <yy_init_globals>:
    5076:	f3 0f 1e fa          	endbr64
    507a:	55                   	push   %rbp
    507b:	48 89 e5             	mov    %rsp,%rbp
    507e:	48 c7 05 ff c5 01 00 	movq   $0x0,0x1c5ff(%rip)        # 21688 <yy_buffer_stack>
    5085:	00 00 00 00
    5089:	48 c7 05 e4 c5 01 00 	movq   $0x0,0x1c5e4(%rip)        # 21678 <yy_buffer_stack_top>
    5090:	00 00 00 00
    5094:	48 c7 05 e1 c5 01 00 	movq   $0x0,0x1c5e1(%rip)        # 21680 <yy_buffer_stack_max>
    509b:	00 00 00 00
    509f:	48 c7 05 ee c5 01 00 	movq   $0x0,0x1c5ee(%rip)        # 21698 <yy_c_buf_p>
    50a6:	00 00 00 00
    50aa:	c7 05 ec c5 01 00 00 	movl   $0x0,0x1c5ec(%rip)        # 216a0 <yy_init>
    50b1:	00 00 00
    50b4:	c7 05 e6 c5 01 00 00 	movl   $0x0,0x1c5e6(%rip)        # 216a4 <yy_start>
    50bb:	00 00 00
    50be:	48 c7 05 df bf 01 00 	movq   $0x0,0x1bfdf(%rip)        # 210a8 <yyin>
    50c5:	00 00 00 00
    50c9:	48 c7 05 dc bf 01 00 	movq   $0x0,0x1bfdc(%rip)        # 210b0 <yyout>
    50d0:	00 00 00 00
    50d4:	b8 00 00 00 00       	mov    $0x0,%eax
    50d9:	5d                   	pop    %rbp
    50da:	c3                   	ret

00000000000050db <yylex_destroy>:
    50db:	f3 0f 1e fa          	endbr64
    50df:	55                   	push   %rbp
    50e0:	48 89 e5             	mov    %rsp,%rbp
    50e3:	eb 54                	jmp    5139 <yylex_destroy+0x5e>
    50e5:	48 8b 05 9c c5 01 00 	mov    0x1c59c(%rip),%rax        # 21688 <yy_buffer_stack>
    50ec:	48 85 c0             	test   %rax,%rax
    50ef:	74 1a                	je     510b <yylex_destroy+0x30>
    50f1:	48 8b 05 90 c5 01 00 	mov    0x1c590(%rip),%rax        # 21688 <yy_buffer_stack>
    50f8:	48 8b 15 79 c5 01 00 	mov    0x1c579(%rip),%rdx        # 21678 <yy_buffer_stack_top>
    50ff:	48 c1 e2 03          	shl    $0x3,%rdx
    5103:	48 01 d0             	add    %rdx,%rax
    5106:	48 8b 00             	mov    (%rax),%rax
    5109:	eb 05                	jmp    5110 <yylex_destroy+0x35>
    510b:	b8 00 00 00 00       	mov    $0x0,%eax
    5110:	48 89 c7             	mov    %rax,%rdi
    5113:	e8 32 f7 ff ff       	call   484a <yy_delete_buffer>
    5118:	48 8b 05 69 c5 01 00 	mov    0x1c569(%rip),%rax        # 21688 <yy_buffer_stack>
    511f:	48 8b 15 52 c5 01 00 	mov    0x1c552(%rip),%rdx        # 21678 <yy_buffer_stack_top>
    5126:	48 c1 e2 03          	shl    $0x3,%rdx
    512a:	48 01 d0             	add    %rdx,%rax
    512d:	48 c7 00 00 00 00 00 	movq   $0x0,(%rax)
    5134:	e8 0f fa ff ff       	call   4b48 <yypop_buffer_state>
    5139:	48 8b 05 48 c5 01 00 	mov    0x1c548(%rip),%rax        # 21688 <yy_buffer_stack>
    5140:	48 85 c0             	test   %rax,%rax
    5143:	74 1d                	je     5162 <yylex_destroy+0x87>
    5145:	48 8b 05 3c c5 01 00 	mov    0x1c53c(%rip),%rax        # 21688 <yy_buffer_stack>
    514c:	48 8b 15 25 c5 01 00 	mov    0x1c525(%rip),%rdx        # 21678 <yy_buffer_stack_top>
    5153:	48 c1 e2 03          	shl    $0x3,%rdx
    5157:	48 01 d0             	add    %rdx,%rax
    515a:	48 8b 00             	mov    (%rax),%rax
    515d:	48 85 c0             	test   %rax,%rax
    5160:	75 83                	jne    50e5 <yylex_destroy+0xa>
    5162:	48 8b 05 1f c5 01 00 	mov    0x1c51f(%rip),%rax        # 21688 <yy_buffer_stack>
    5169:	48 89 c7             	mov    %rax,%rdi
    516c:	e8 5e 00 00 00       	call   51cf <yyfree>
    5171:	48 c7 05 0c c5 01 00 	movq   $0x0,0x1c50c(%rip)        # 21688 <yy_buffer_stack>
    5178:	00 00 00 00
    517c:	e8 f5 fe ff ff       	call   5076 <yy_init_globals>
    5181:	b8 00 00 00 00       	mov    $0x0,%eax
    5186:	5d                   	pop    %rbp
    5187:	c3                   	ret

0000000000005188 <yyalloc>:
    5188:	f3 0f 1e fa          	endbr64
    518c:	55                   	push   %rbp
    518d:	48 89 e5             	mov    %rsp,%rbp
    5190:	48 83 ec 10          	sub    $0x10,%rsp
    5194:	48 89 7d f8          	mov    %rdi,-0x8(%rbp)
    5198:	48 8b 45 f8          	mov    -0x8(%rbp),%rax
    519c:	48 89 c7             	mov    %rax,%rdi
    519f:	e8 6c d2 ff ff       	call   2410 <malloc@plt>
    51a4:	c9                   	leave
    51a5:	c3                   	ret

00000000000051a6 <yyrealloc>:
    51a6:	f3 0f 1e fa          	endbr64
    51aa:	55                   	push   %rbp
    51ab:	48 89 e5             	mov    %rsp,%rbp
    51ae:	48 83 ec 10          	sub    $0x10,%rsp
    51b2:	48 89 7d f8          	mov    %rdi,-0x8(%rbp)
    51b6:	48 89 75 f0          	mov    %rsi,-0x10(%rbp)
    51ba:	48 8b 55 f0          	mov    -0x10(%rbp),%rdx
    51be:	48 8b 45 f8          	mov    -0x8(%rbp),%rax
    51c2:	48 89 d6             	mov    %rdx,%rsi
    51c5:	48 89 c7             	mov    %rax,%rdi
    51c8:	e8 63 d2 ff ff       	call   2430 <realloc@plt>
    51cd:	c9                   	leave
    51ce:	c3                   	ret

00000000000051cf <yyfree>:
    51cf:	f3 0f 1e fa          	endbr64
    51d3:	55                   	push   %rbp
    51d4:	48 89 e5             	mov    %rsp,%rbp
    51d7:	48 83 ec 10          	sub    $0x10,%rsp
    51db:	48 89 7d f8          	mov    %rdi,-0x8(%rbp)
    51df:	48 8b 45 f8          	mov    -0x8(%rbp),%rax
    51e3:	48 89 c7             	mov    %rax,%rdi
    51e6:	e8 a5 d0 ff ff       	call   2290 <free@plt>
    51eb:	90                   	nop
    51ec:	c9                   	leave
    51ed:	c3                   	ret

00000000000051ee <yysymbol_name>:
    51ee:	f3 0f 1e fa          	endbr64
    51f2:	55                   	push   %rbp
    51f3:	48 89 e5             	mov    %rsp,%rbp
    51f6:	89 7d fc             	mov    %edi,-0x4(%rbp)
    51f9:	8b 45 fc             	mov    -0x4(%rbp),%eax
    51fc:	48 98                	cltq
    51fe:	48 8d 14 c5 00 00 00 	lea    0x0(,%rax,8),%rdx
    5205:	00
    5206:	48 8d 05 13 b7 01 00 	lea    0x1b713(%rip),%rax        # 20920 <yytname>
    520d:	48 8b 04 02          	mov    (%rdx,%rax,1),%rax
    5211:	5d                   	pop    %rbp
    5212:	c3                   	ret

0000000000005213 <yypcontext_expected_tokens>:
    5213:	f3 0f 1e fa          	endbr64
    5217:	55                   	push   %rbp
    5218:	48 89 e5             	mov    %rsp,%rbp
    521b:	48 89 7d d8          	mov    %rdi,-0x28(%rbp)
    521f:	48 89 75 d0          	mov    %rsi,-0x30(%rbp)
    5223:	89 55 cc             	mov    %edx,-0x34(%rbp)
    5226:	c7 45 e8 00 00 00 00 	movl   $0x0,-0x18(%rbp)
    522d:	48 8b 45 d8          	mov    -0x28(%rbp),%rax
    5231:	48 8b 00             	mov    (%rax),%rax
    5234:	0f b6 00             	movzbl (%rax),%eax
    5237:	0f b6 c0             	movzbl %al,%eax
    523a:	48 98                	cltq
    523c:	48 8d 14 00          	lea    (%rax,%rax,1),%rdx
    5240:	48 8d 05 79 33 01 00 	lea    0x13379(%rip),%rax        # 185c0 <yypact>
    5247:	0f b7 04 02          	movzwl (%rdx,%rax,1),%eax
    524b:	98                   	cwtl
    524c:	89 45 f0             	mov    %eax,-0x10(%rbp)
    524f:	83 7d f0 95          	cmpl   $0xffffff95,-0x10(%rbp)
    5253:	0f 84 a4 00 00 00    	je     52fd <yypcontext_expected_tokens+0xea>
    5259:	83 7d f0 00          	cmpl   $0x0,-0x10(%rbp)
    525d:	79 07                	jns    5266 <yypcontext_expected_tokens+0x53>
    525f:	8b 45 f0             	mov    -0x10(%rbp),%eax
    5262:	f7 d8                	neg    %eax
    5264:	eb 05                	jmp    526b <yypcontext_expected_tokens+0x58>
    5266:	b8 00 00 00 00       	mov    $0x0,%eax
    526b:	89 45 f4             	mov    %eax,-0xc(%rbp)
    526e:	b8 b0 00 00 00       	mov    $0xb0,%eax
    5273:	2b 45 f0             	sub    -0x10(%rbp),%eax
    5276:	89 45 f8             	mov    %eax,-0x8(%rbp)
    5279:	8b 45 f8             	mov    -0x8(%rbp),%eax
    527c:	ba 42 00 00 00       	mov    $0x42,%edx
    5281:	39 d0                	cmp    %edx,%eax
    5283:	0f 4f c2             	cmovg  %edx,%eax
    5286:	89 45 fc             	mov    %eax,-0x4(%rbp)
    5289:	8b 45 f4             	mov    -0xc(%rbp),%eax
    528c:	89 45 ec             	mov    %eax,-0x14(%rbp)
    528f:	eb 64                	jmp    52f5 <yypcontext_expected_tokens+0xe2>
    5291:	8b 55 ec             	mov    -0x14(%rbp),%edx
    5294:	8b 45 f0             	mov    -0x10(%rbp),%eax
    5297:	01 d0                	add    %edx,%eax
    5299:	48 98                	cltq
    529b:	48 8d 14 00          	lea    (%rax,%rax,1),%rdx
    529f:	48 8d 05 3a 37 01 00 	lea    0x1373a(%rip),%rax        # 189e0 <yycheck>
    52a6:	0f b7 04 02          	movzwl (%rdx,%rax,1),%eax
    52aa:	98                   	cwtl
    52ab:	39 45 ec             	cmp    %eax,-0x14(%rbp)
    52ae:	75 41                	jne    52f1 <yypcontext_expected_tokens+0xde>
    52b0:	83 7d ec 01          	cmpl   $0x1,-0x14(%rbp)
    52b4:	74 3b                	je     52f1 <yypcontext_expected_tokens+0xde>
    52b6:	48 83 7d d0 00       	cmpq   $0x0,-0x30(%rbp)
    52bb:	75 06                	jne    52c3 <yypcontext_expected_tokens+0xb0>
    52bd:	83 45 e8 01          	addl   $0x1,-0x18(%rbp)
    52c1:	eb 2e                	jmp    52f1 <yypcontext_expected_tokens+0xde>
    52c3:	8b 45 e8             	mov    -0x18(%rbp),%eax
    52c6:	3b 45 cc             	cmp    -0x34(%rbp),%eax
    52c9:	75 07                	jne    52d2 <yypcontext_expected_tokens+0xbf>
    52cb:	b8 00 00 00 00       	mov    $0x0,%eax
    52d0:	eb 4b                	jmp    531d <yypcontext_expected_tokens+0x10a>
    52d2:	8b 45 e8             	mov    -0x18(%rbp),%eax
    52d5:	8d 50 01             	lea    0x1(%rax),%edx
    52d8:	89 55 e8             	mov    %edx,-0x18(%rbp)
    52db:	48 98                	cltq
    52dd:	48 8d 14 85 00 00 00 	lea    0x0(,%rax,4),%rdx
    52e4:	00
    52e5:	48 8b 45 d0          	mov    -0x30(%rbp),%rax
    52e9:	48 01 c2             	add    %rax,%rdx
    52ec:	8b 45 ec             	mov    -0x14(%rbp),%eax
    52ef:	89 02                	mov    %eax,(%rdx)
    52f1:	83 45 ec 01          	addl   $0x1,-0x14(%rbp)
    52f5:	8b 45 ec             	mov    -0x14(%rbp),%eax
    52f8:	3b 45 fc             	cmp    -0x4(%rbp),%eax
    52fb:	7c 94                	jl     5291 <yypcontext_expected_tokens+0x7e>
    52fd:	48 83 7d d0 00       	cmpq   $0x0,-0x30(%rbp)
    5302:	74 16                	je     531a <yypcontext_expected_tokens+0x107>
    5304:	83 7d e8 00          	cmpl   $0x0,-0x18(%rbp)
    5308:	75 10                	jne    531a <yypcontext_expected_tokens+0x107>
    530a:	83 7d cc 00          	cmpl   $0x0,-0x34(%rbp)
    530e:	7e 0a                	jle    531a <yypcontext_expected_tokens+0x107>
    5310:	48 8b 45 d0          	mov    -0x30(%rbp),%rax
    5314:	c7 00 fe ff ff ff    	movl   $0xfffffffe,(%rax)
    531a:	8b 45 e8             	mov    -0x18(%rbp),%eax
    531d:	5d                   	pop    %rbp
    531e:	c3                   	ret

000000000000531f <yystpcpy>:
    531f:	f3 0f 1e fa          	endbr64
    5323:	55                   	push   %rbp
    5324:	48 89 e5             	mov    %rsp,%rbp
    5327:	48 89 7d e8          	mov    %rdi,-0x18(%rbp)
    532b:	48 89 75 e0          	mov    %rsi,-0x20(%rbp)
    532f:	48 8b 45 e8          	mov    -0x18(%rbp),%rax
    5333:	48 89 45 f0          	mov    %rax,-0x10(%rbp)
    5337:	48 8b 45 e0          	mov    -0x20(%rbp),%rax
    533b:	48 89 45 f8          	mov    %rax,-0x8(%rbp)
    533f:	eb 01                	jmp    5342 <yystpcpy+0x23>
    5341:	90                   	nop
    5342:	48 8b 55 f8          	mov    -0x8(%rbp),%rdx
    5346:	48 8d 42 01          	lea    0x1(%rdx),%rax
    534a:	48 89 45 f8          	mov    %rax,-0x8(%rbp)
    534e:	48 8b 45 f0          	mov    -0x10(%rbp),%rax
    5352:	48 8d 48 01          	lea    0x1(%rax),%rcx
    5356:	48 89 4d f0          	mov    %rcx,-0x10(%rbp)
    535a:	0f b6 12             	movzbl (%rdx),%edx
    535d:	88 10                	mov    %dl,(%rax)
    535f:	0f b6 00             	movzbl (%rax),%eax
    5362:	84 c0                	test   %al,%al
    5364:	75 db                	jne    5341 <yystpcpy+0x22>
    5366:	48 8b 45 f0          	mov    -0x10(%rbp),%rax
    536a:	48 83 e8 01          	sub    $0x1,%rax
    536e:	5d                   	pop    %rbp
    536f:	c3                   	ret

0000000000005370 <yytnamerr>:
    5370:	f3 0f 1e fa          	endbr64
    5374:	55                   	push   %rbp
    5375:	48 89 e5             	mov    %rsp,%rbp
    5378:	48 83 ec 20          	sub    $0x20,%rsp
    537c:	48 89 7d e8          	mov    %rdi,-0x18(%rbp)
    5380:	48 89 75 e0          	mov    %rsi,-0x20(%rbp)
    5384:	48 8b 45 e0          	mov    -0x20(%rbp),%rax
    5388:	0f b6 00             	movzbl (%rax),%eax
    538b:	3c 22                	cmp    $0x22,%al
    538d:	0f 85 93 00 00 00    	jne    5426 <yytnamerr+0xb6>
    5393:	48 c7 45 f0 00 00 00 	movq   $0x0,-0x10(%rbp)
    539a:	00
    539b:	48 8b 45 e0          	mov    -0x20(%rbp),%rax
    539f:	48 89 45 f8          	mov    %rax,-0x8(%rbp)
    53a3:	48 83 45 f8 01       	addq   $0x1,-0x8(%rbp)
    53a8:	48 8b 45 f8          	mov    -0x8(%rbp),%rax
    53ac:	0f b6 00             	movzbl (%rax),%eax
    53af:	0f be c0             	movsbl %al,%eax
    53b2:	83 f8 5c             	cmp    $0x5c,%eax
    53b5:	74 1b                	je     53d2 <yytnamerr+0x62>
    53b7:	83 f8 5c             	cmp    $0x5c,%eax
    53ba:	7f 27                	jg     53e3 <yytnamerr+0x73>
    53bc:	83 f8 2c             	cmp    $0x2c,%eax
    53bf:	74 61                	je     5422 <yytnamerr+0xb2>
    53c1:	83 f8 2c             	cmp    $0x2c,%eax
    53c4:	7f 1d                	jg     53e3 <yytnamerr+0x73>
    53c6:	83 f8 22             	cmp    $0x22,%eax
    53c9:	74 3a                	je     5405 <yytnamerr+0x95>
    53cb:	83 f8 27             	cmp    $0x27,%eax
    53ce:	75 13                	jne    53e3 <yytnamerr+0x73>
    53d0:	eb 50                	jmp    5422 <yytnamerr+0xb2>
    53d2:	48 83 45 f8 01       	addq   $0x1,-0x8(%rbp)
    53d7:	48 8b 45 f8          	mov    -0x8(%rbp),%rax
    53db:	0f b6 00             	movzbl (%rax),%eax
    53de:	3c 5c                	cmp    $0x5c,%al
    53e0:	75 43                	jne    5425 <yytnamerr+0xb5>
    53e2:	90                   	nop
    53e3:	48 83 7d e8 00       	cmpq   $0x0,-0x18(%rbp)
    53e8:	74 14                	je     53fe <yytnamerr+0x8e>
    53ea:	48 8b 55 f0          	mov    -0x10(%rbp),%rdx
    53ee:	48 8b 45 e8          	mov    -0x18(%rbp),%rax
    53f2:	48 01 c2             	add    %rax,%rdx
    53f5:	48 8b 45 f8          	mov    -0x8(%rbp),%rax
    53f9:	0f b6 00             	movzbl (%rax),%eax
    53fc:	88 02                	mov    %al,(%rdx)
    53fe:	48 83 45 f0 01       	addq   $0x1,-0x10(%rbp)
    5403:	eb 1b                	jmp    5420 <yytnamerr+0xb0>
    5405:	48 83 7d e8 00       	cmpq   $0x0,-0x18(%rbp)
    540a:	74 0e                	je     541a <yytnamerr+0xaa>
    540c:	48 8b 55 f0          	mov    -0x10(%rbp),%rdx
    5410:	48 8b 45 e8          	mov    -0x18(%rbp),%rax
    5414:	48 01 d0             	add    %rdx,%rax
    5417:	c6 00 00             	movb   $0x0,(%rax)
    541a:	48 8b 45 f0          	mov    -0x10(%rbp),%rax
    541e:	eb 32                	jmp    5452 <yytnamerr+0xe2>
    5420:	eb 81                	jmp    53a3 <yytnamerr+0x33>
    5422:	90                   	nop
    5423:	eb 01                	jmp    5426 <yytnamerr+0xb6>
    5425:	90                   	nop
    5426:	48 83 7d e8 00       	cmpq   $0x0,-0x18(%rbp)
    542b:	74 19                	je     5446 <yytnamerr+0xd6>
    542d:	48 8b 55 e0          	mov    -0x20(%rbp),%rdx
    5431:	48 8b 45 e8          	mov    -0x18(%rbp),%rax
    5435:	48 89 d6             	mov    %rdx,%rsi
    5438:	48 89 c7             	mov    %rax,%rdi
    543b:	e8 df fe ff ff       	call   531f <yystpcpy>
    5440:	48 2b 45 e8          	sub    -0x18(%rbp),%rax
    5444:	eb 0c                	jmp    5452 <yytnamerr+0xe2>
    5446:	48 8b 45 e0          	mov    -0x20(%rbp),%rax
    544a:	48 89 c7             	mov    %rax,%rdi
    544d:	e8 ce ce ff ff       	call   2320 <strlen@plt>
    5452:	c9                   	leave
    5453:	c3                   	ret

0000000000005454 <yy_syntax_error_arguments>:
    5454:	f3 0f 1e fa          	endbr64
    5458:	55                   	push   %rbp
    5459:	48 89 e5             	mov    %rsp,%rbp
    545c:	48 83 ec 28          	sub    $0x28,%rsp
    5460:	48 89 7d e8          	mov    %rdi,-0x18(%rbp)
    5464:	48 89 75 e0          	mov    %rsi,-0x20(%rbp)
    5468:	89 55 dc             	mov    %edx,-0x24(%rbp)
    546b:	c7 45 f8 00 00 00 00 	movl   $0x0,-0x8(%rbp)
    5472:	48 8b 45 e8          	mov    -0x18(%rbp),%rax
    5476:	8b 40 08             	mov    0x8(%rax),%eax
    5479:	83 f8 fe             	cmp    $0xfffffffe,%eax
    547c:	74 68                	je     54e6 <yy_syntax_error_arguments+0x92>
    547e:	48 83 7d e0 00       	cmpq   $0x0,-0x20(%rbp)
    5483:	74 1d                	je     54a2 <yy_syntax_error_arguments+0x4e>
    5485:	8b 45 f8             	mov    -0x8(%rbp),%eax
    5488:	48 98                	cltq
    548a:	48 8d 14 85 00 00 00 	lea    0x0(,%rax,4),%rdx
    5491:	00
    5492:	48 8b 45 e0          	mov    -0x20(%rbp),%rax
    5496:	48 01 c2             	add    %rax,%rdx
    5499:	48 8b 45 e8          	mov    -0x18(%rbp),%rax
    549d:	8b 40 08             	mov    0x8(%rax),%eax
    54a0:	89 02                	mov    %eax,(%rdx)
    54a2:	83 45 f8 01          	addl   $0x1,-0x8(%rbp)
    54a6:	8b 45 dc             	mov    -0x24(%rbp),%eax
    54a9:	8d 50 ff             	lea    -0x1(%rax),%edx
    54ac:	48 83 7d e0 00       	cmpq   $0x0,-0x20(%rbp)
    54b1:	74 0a                	je     54bd <yy_syntax_error_arguments+0x69>
    54b3:	48 8b 45 e0          	mov    -0x20(%rbp),%rax
    54b7:	48 83 c0 04          	add    $0x4,%rax
    54bb:	eb 04                	jmp    54c1 <yy_syntax_error_arguments+0x6d>
    54bd:	48 8b 45 e0          	mov    -0x20(%rbp),%rax
    54c1:	48 8b 4d e8          	mov    -0x18(%rbp),%rcx
    54c5:	48 89 c6             	mov    %rax,%rsi
    54c8:	48 89 cf             	mov    %rcx,%rdi
    54cb:	e8 43 fd ff ff       	call   5213 <yypcontext_expected_tokens>
    54d0:	89 45 fc             	mov    %eax,-0x4(%rbp)
    54d3:	83 7d fc fe          	cmpl   $0xfffffffe,-0x4(%rbp)
    54d7:	75 07                	jne    54e0 <yy_syntax_error_arguments+0x8c>
    54d9:	b8 fe ff ff ff       	mov    $0xfffffffe,%eax
    54de:	eb 09                	jmp    54e9 <yy_syntax_error_arguments+0x95>
    54e0:	8b 45 fc             	mov    -0x4(%rbp),%eax
    54e3:	01 45 f8             	add    %eax,-0x8(%rbp)
    54e6:	8b 45 f8             	mov    -0x8(%rbp),%eax
    54e9:	c9                   	leave
    54ea:	c3                   	ret

00000000000054eb <yysyntax_error>:
    54eb:	f3 0f 1e fa          	endbr64
    54ef:	55                   	push   %rbp
    54f0:	48 89 e5             	mov    %rsp,%rbp
    54f3:	48 83 ec 70          	sub    $0x70,%rsp
    54f7:	48 89 7d a8          	mov    %rdi,-0x58(%rbp)
    54fb:	48 89 75 a0          	mov    %rsi,-0x60(%rbp)
    54ff:	48 89 55 98          	mov    %rdx,-0x68(%rbp)
    5503:	64 48 8b 04 25 28 00 	mov    %fs:0x28,%rax
    550a:	00 00
    550c:	48 89 45 f8          	mov    %rax,-0x8(%rbp)
    5510:	31 c0                	xor    %eax,%eax
    5512:	48 c7 45 c0 00 00 00 	movq   $0x0,-0x40(%rbp)
    5519:	00
    551a:	48 c7 45 c8 00 00 00 	movq   $0x0,-0x38(%rbp)
    5521:	00
    5522:	48 8d 4d e0          	lea    -0x20(%rbp),%rcx
    5526:	48 8b 45 98          	mov    -0x68(%rbp),%rax
    552a:	ba 05 00 00 00       	mov    $0x5,%edx
    552f:	48 89 ce             	mov    %rcx,%rsi
    5532:	48 89 c7             	mov    %rax,%rdi
    5535:	e8 1a ff ff ff       	call   5454 <yy_syntax_error_arguments>
    553a:	89 45 bc             	mov    %eax,-0x44(%rbp)
    553d:	83 7d bc fe          	cmpl   $0xfffffffe,-0x44(%rbp)
    5541:	75 0a                	jne    554d <yysyntax_error+0x62>
    5543:	b8 fe ff ff ff       	mov    $0xfffffffe,%eax
    5548:	e9 e3 01 00 00       	jmp    5730 <yysyntax_error+0x245>
    554d:	83 7d bc 05          	cmpl   $0x5,-0x44(%rbp)
    5551:	77 24                	ja     5577 <yysyntax_error+0x8c>
    5553:	8b 45 bc             	mov    -0x44(%rbp),%eax
    5556:	48 8d 14 85 00 00 00 	lea    0x0(,%rax,4),%rdx
    555d:	00
    555e:	48 8d 05 57 38 01 00 	lea    0x13857(%rip),%rax        # 18dbc <yyr2+0x15c>
    5565:	8b 04 02             	mov    (%rdx,%rax,1),%eax
    5568:	48 98                	cltq
    556a:	48 8d 15 4b 38 01 00 	lea    0x1384b(%rip),%rdx        # 18dbc <yyr2+0x15c>
    5571:	48 01 d0             	add    %rdx,%rax
    5574:	3e ff e0             	notrack jmp *%rax
    5577:	48 8d 05 3b 37 01 00 	lea    0x1373b(%rip),%rax        # 18cb9 <yyr2+0x59>
    557e:	48 89 45 c0          	mov    %rax,-0x40(%rbp)
    5582:	eb 3f                	jmp    55c3 <yysyntax_error+0xd8>
    5584:	48 8d 05 3b 37 01 00 	lea    0x1373b(%rip),%rax        # 18cc6 <yyr2+0x66>
    558b:	48 89 45 c0          	mov    %rax,-0x40(%rbp)
    558f:	eb 32                	jmp    55c3 <yysyntax_error+0xd8>
    5591:	48 8d 05 50 37 01 00 	lea    0x13750(%rip),%rax        # 18ce8 <yyr2+0x88>
    5598:	48 89 45 c0          	mov    %rax,-0x40(%rbp)
    559c:	eb 25                	jmp    55c3 <yysyntax_error+0xd8>
    559e:	48 8d 05 73 37 01 00 	lea    0x13773(%rip),%rax        # 18d18 <yyr2+0xb8>
    55a5:	48 89 45 c0          	mov    %rax,-0x40(%rbp)
    55a9:	eb 18                	jmp    55c3 <yysyntax_error+0xd8>
    55ab:	48 8d 05 96 37 01 00 	lea    0x13796(%rip),%rax        # 18d48 <yyr2+0xe8>
    55b2:	48 89 45 c0          	mov    %rax,-0x40(%rbp)
    55b6:	eb 0b                	jmp    55c3 <yysyntax_error+0xd8>
    55b8:	48 8d 05 c1 37 01 00 	lea    0x137c1(%rip),%rax        # 18d80 <yyr2+0x120>
    55bf:	48 89 45 c0          	mov    %rax,-0x40(%rbp)
    55c3:	48 8b 45 c0          	mov    -0x40(%rbp),%rax
    55c7:	48 89 c7             	mov    %rax,%rdi
    55ca:	e8 51 cd ff ff       	call   2320 <strlen@plt>
    55cf:	48 89 c2             	mov    %rax,%rdx
    55d2:	8b 45 bc             	mov    -0x44(%rbp),%eax
    55d5:	01 c0                	add    %eax,%eax
    55d7:	48 98                	cltq
    55d9:	48 29 c2             	sub    %rax,%rdx
    55dc:	48 8d 42 01          	lea    0x1(%rdx),%rax
    55e0:	48 89 45 c8          	mov    %rax,-0x38(%rbp)
    55e4:	c7 45 b4 00 00 00 00 	movl   $0x0,-0x4c(%rbp)
    55eb:	eb 58                	jmp    5645 <yysyntax_error+0x15a>
    55ed:	8b 45 b4             	mov    -0x4c(%rbp),%eax
    55f0:	48 98                	cltq
    55f2:	8b 44 85 e0          	mov    -0x20(%rbp,%rax,4),%eax
    55f6:	48 98                	cltq
    55f8:	48 8d 14 c5 00 00 00 	lea    0x0(,%rax,8),%rdx
    55ff:	00
    5600:	48 8d 05 19 b3 01 00 	lea    0x1b319(%rip),%rax        # 20920 <yytname>
    5607:	48 8b 04 02          	mov    (%rdx,%rax,1),%rax
    560b:	48 89 c6             	mov    %rax,%rsi
    560e:	bf 00 00 00 00       	mov    $0x0,%edi
    5613:	e8 58 fd ff ff       	call   5370 <yytnamerr>
    5618:	48 8b 55 c8          	mov    -0x38(%rbp),%rdx
    561c:	48 01 d0             	add    %rdx,%rax
    561f:	48 89 45 d8          	mov    %rax,-0x28(%rbp)
    5623:	48 8b 45 c8          	mov    -0x38(%rbp),%rax
    5627:	48 3b 45 d8          	cmp    -0x28(%rbp),%rax
    562b:	7f 0a                	jg     5637 <yysyntax_error+0x14c>
    562d:	48 8b 45 d8          	mov    -0x28(%rbp),%rax
    5631:	48 89 45 c8          	mov    %rax,-0x38(%rbp)
    5635:	eb 0a                	jmp    5641 <yysyntax_error+0x156>
    5637:	b8 fe ff ff ff       	mov    $0xfffffffe,%eax
    563c:	e9 ef 00 00 00       	jmp    5730 <yysyntax_error+0x245>
    5641:	83 45 b4 01          	addl   $0x1,-0x4c(%rbp)
    5645:	8b 45 b4             	mov    -0x4c(%rbp),%eax
    5648:	3b 45 bc             	cmp    -0x44(%rbp),%eax
    564b:	7c a0                	jl     55ed <yysyntax_error+0x102>
    564d:	48 8b 45 a8          	mov    -0x58(%rbp),%rax
    5651:	48 8b 00             	mov    (%rax),%rax
    5654:	48 39 45 c8          	cmp    %rax,-0x38(%rbp)
    5658:	7e 37                	jle    5691 <yysyntax_error+0x1a6>
    565a:	48 8b 45 c8          	mov    -0x38(%rbp),%rax
    565e:	48 8d 14 00          	lea    (%rax,%rax,1),%rdx
    5662:	48 8b 45 a8          	mov    -0x58(%rbp),%rax
    5666:	48 89 10             	mov    %rdx,(%rax)
    5669:	48 8b 45 a8          	mov    -0x58(%rbp),%rax
    566d:	48 8b 00             	mov    (%rax),%rax
    5670:	48 39 45 c8          	cmp    %rax,-0x38(%rbp)
    5674:	7e 11                	jle    5687 <yysyntax_error+0x19c>
    5676:	48 8b 45 a8          	mov    -0x58(%rbp),%rax
    567a:	48 b9 ff ff ff ff ff 	movabs $0x7fffffffffffffff,%rcx
    5681:	ff ff 7f
    5684:	48 89 08             	mov    %rcx,(%rax)
    5687:	b8 ff ff ff ff       	mov    $0xffffffff,%eax
    568c:	e9 9f 00 00 00       	jmp    5730 <yysyntax_error+0x245>
    5691:	48 8b 45 a0          	mov    -0x60(%rbp),%rax
    5695:	48 8b 00             	mov    (%rax),%rax
    5698:	48 89 45 d0          	mov    %rax,-0x30(%rbp)
    569c:	c7 45 b8 00 00 00 00 	movl   $0x0,-0x48(%rbp)
    56a3:	eb 6a                	jmp    570f <yysyntax_error+0x224>
    56a5:	48 8b 45 d0          	mov    -0x30(%rbp),%rax
    56a9:	0f b6 00             	movzbl (%rax),%eax
    56ac:	3c 25                	cmp    $0x25,%al
    56ae:	75 55                	jne    5705 <yysyntax_error+0x21a>
    56b0:	48 8b 45 c0          	mov    -0x40(%rbp),%rax
    56b4:	48 83 c0 01          	add    $0x1,%rax
    56b8:	0f b6 00             	movzbl (%rax),%eax
    56bb:	3c 73                	cmp    $0x73,%al
    56bd:	75 46                	jne    5705 <yysyntax_error+0x21a>
    56bf:	8b 45 b8             	mov    -0x48(%rbp),%eax
    56c2:	3b 45 bc             	cmp    -0x44(%rbp),%eax
    56c5:	7d 3e                	jge    5705 <yysyntax_error+0x21a>
    56c7:	8b 45 b8             	mov    -0x48(%rbp),%eax
    56ca:	8d 50 01             	lea    0x1(%rax),%edx
    56cd:	89 55 b8             	mov    %edx,-0x48(%rbp)
    56d0:	48 98                	cltq
    56d2:	8b 44 85 e0          	mov    -0x20(%rbp,%rax,4),%eax
    56d6:	48 98                	cltq
    56d8:	48 8d 14 c5 00 00 00 	lea    0x0(,%rax,8),%rdx
    56df:	00
    56e0:	48 8d 05 39 b2 01 00 	lea    0x1b239(%rip),%rax        # 20920 <yytname>
    56e7:	48 8b 14 02          	mov    (%rdx,%rax,1),%rdx
    56eb:	48 8b 45 d0          	mov    -0x30(%rbp),%rax
    56ef:	48 89 d6             	mov    %rdx,%rsi
    56f2:	48 89 c7             	mov    %rax,%rdi
    56f5:	e8 76 fc ff ff       	call   5370 <yytnamerr>
    56fa:	48 01 45 d0          	add    %rax,-0x30(%rbp)
    56fe:	48 83 45 c0 02       	addq   $0x2,-0x40(%rbp)
    5703:	eb 0a                	jmp    570f <yysyntax_error+0x224>
    5705:	48 83 45 d0 01       	addq   $0x1,-0x30(%rbp)
    570a:	48 83 45 c0 01       	addq   $0x1,-0x40(%rbp)
    570f:	48 8b 45 c0          	mov    -0x40(%rbp),%rax
    5713:	0f b6 10             	movzbl (%rax),%edx
    5716:	48 8b 45 d0          	mov    -0x30(%rbp),%rax
    571a:	88 10                	mov    %dl,(%rax)
    571c:	48 8b 45 d0          	mov    -0x30(%rbp),%rax
    5720:	0f b6 00             	movzbl (%rax),%eax
    5723:	84 c0                	test   %al,%al
    5725:	0f 85 7a ff ff ff    	jne    56a5 <yysyntax_error+0x1ba>
    572b:	b8 00 00 00 00       	mov    $0x0,%eax
    5730:	48 8b 55 f8          	mov    -0x8(%rbp),%rdx
    5734:	64 48 2b 14 25 28 00 	sub    %fs:0x28,%rdx
    573b:	00 00
    573d:	74 05                	je     5744 <yysyntax_error+0x259>
    573f:	e8 ec cb ff ff       	call   2330 <__stack_chk_fail@plt>
    5744:	c9                   	leave
    5745:	c3                   	ret

0000000000005746 <yydestruct>:
    5746:	f3 0f 1e fa          	endbr64
    574a:	55                   	push   %rbp
    574b:	48 89 e5             	mov    %rsp,%rbp
    574e:	48 89 7d f8          	mov    %rdi,-0x8(%rbp)
    5752:	89 75 f4             	mov    %esi,-0xc(%rbp)
    5755:	48 89 55 e8          	mov    %rdx,-0x18(%rbp)
    5759:	48 83 7d f8 00       	cmpq   $0x0,-0x8(%rbp)
    575e:	75 0b                	jne    576b <yydestruct+0x25>
    5760:	48 8d 05 6d 36 01 00 	lea    0x1366d(%rip),%rax        # 18dd4 <yyr2+0x174>
    5767:	48 89 45 f8          	mov    %rax,-0x8(%rbp)
    576b:	90                   	nop
    576c:	5d                   	pop    %rbp
    576d:	c3                   	ret

000000000000576e <yyparse>:
    576e:	f3 0f 1e fa          	endbr64
    5772:	55                   	push   %rbp
    5773:	48 89 e5             	mov    %rsp,%rbp
    5776:	53                   	push   %rbx
    5777:	48 81 ec 00 10 00 00 	sub    $0x1000,%rsp
    577e:	48 83 0c 24 00       	orq    $0x0,(%rsp)
    5783:	48 81 ec 00 10 00 00 	sub    $0x1000,%rsp
    578a:	48 83 0c 24 00       	orq    $0x0,(%rsp)
    578f:	48 81 ec b8 07 00 00 	sub    $0x7b8,%rsp
    5796:	64 48 8b 04 25 28 00 	mov    %fs:0x28,%rax
    579d:	00 00
    579f:	48 89 45 e8          	mov    %rax,-0x18(%rbp)
    57a3:	31 c0                	xor    %eax,%eax
    57a5:	c7 85 44 d8 ff ff 00 	movl   $0x0,-0x27bc(%rbp)
    57ac:	00 00 00
    57af:	c7 85 48 d8 ff ff 00 	movl   $0x0,-0x27b8(%rbp)
    57b6:	00 00 00
    57b9:	48 c7 85 78 d8 ff ff 	movq   $0xc8,-0x2788(%rbp)
    57c0:	c8 00 00 00
    57c4:	48 8d 85 20 ff ff ff 	lea    -0xe0(%rbp),%rax
    57cb:	48 89 85 80 d8 ff ff 	mov    %rax,-0x2780(%rbp)
    57d2:	48 8b 85 80 d8 ff ff 	mov    -0x2780(%rbp),%rax
    57d9:	48 89 85 88 d8 ff ff 	mov    %rax,-0x2778(%rbp)
    57e0:	48 8d 85 20 d9 ff ff 	lea    -0x26e0(%rbp),%rax
    57e7:	48 89 85 90 d8 ff ff 	mov    %rax,-0x2770(%rbp)
    57ee:	48 8b 85 90 d8 ff ff 	mov    -0x2770(%rbp),%rax
    57f5:	48 89 85 98 d8 ff ff 	mov    %rax,-0x2768(%rbp)
    57fc:	c7 85 54 d8 ff ff fe 	movl   $0xfffffffe,-0x27ac(%rbp)
    5803:	ff ff ff
    5806:	48 8d 85 a0 fe ff ff 	lea    -0x160(%rbp),%rax
    580d:	48 89 85 68 d8 ff ff 	mov    %rax,-0x2798(%rbp)
    5814:	48 c7 85 70 d8 ff ff 	movq   $0x80,-0x2790(%rbp)
    581b:	80 00 00 00
    581f:	c7 85 58 d8 ff ff 00 	movl   $0x0,-0x27a8(%rbp)
    5826:	00 00 00
    5829:	c7 05 8d be 01 00 fe 	movl   $0xfffffffe,0x1be8d(%rip)        # 216c0 <yychar>
    5830:	ff ff ff
    5833:	eb 08                	jmp    583d <yyparse+0xcf>
    5835:	48 83 85 88 d8 ff ff 	addq   $0x1,-0x2778(%rbp)
    583c:	01
    583d:	8b 85 44 d8 ff ff    	mov    -0x27bc(%rbp),%eax
    5843:	89 c2                	mov    %eax,%edx
    5845:	48 8b 85 88 d8 ff ff 	mov    -0x2778(%rbp),%rax
    584c:	88 10                	mov    %dl,(%rax)
    584e:	48 8b 85 78 d8 ff ff 	mov    -0x2788(%rbp),%rax
    5855:	48 8d 50 ff          	lea    -0x1(%rax),%rdx
    5859:	48 8b 85 80 d8 ff ff 	mov    -0x2780(%rbp),%rax
    5860:	48 01 d0             	add    %rdx,%rax
    5863:	48 39 85 88 d8 ff ff 	cmp    %rax,-0x2778(%rbp)
    586a:	0f 82 2d 02 00 00    	jb     5a9d <yyparse+0x32f>
    5870:	48 8b 85 88 d8 ff ff 	mov    -0x2778(%rbp),%rax
    5877:	48 2b 85 80 d8 ff ff 	sub    -0x2780(%rbp),%rax
    587e:	48 83 c0 01          	add    $0x1,%rax
    5882:	48 89 85 b8 d8 ff ff 	mov    %rax,-0x2748(%rbp)
    5889:	48 81 bd 78 d8 ff ff 	cmpq   $0x270f,-0x2788(%rbp)
    5890:	0f 27 00 00
    5894:	0f 8f b6 1a 00 00    	jg     7350 <yyparse+0x1be2>
    589a:	48 d1 a5 78 d8 ff ff 	shlq   $1,-0x2788(%rbp)
    58a1:	48 81 bd 78 d8 ff ff 	cmpq   $0x2710,-0x2788(%rbp)
    58a8:	10 27 00 00
    58ac:	7e 0b                	jle    58b9 <yyparse+0x14b>
    58ae:	48 c7 85 78 d8 ff ff 	movq   $0x2710,-0x2788(%rbp)
    58b5:	10 27 00 00
    58b9:	48 8b 85 80 d8 ff ff 	mov    -0x2780(%rbp),%rax
    58c0:	48 89 85 c0 d8 ff ff 	mov    %rax,-0x2740(%rbp)
    58c7:	48 8b 95 78 d8 ff ff 	mov    -0x2788(%rbp),%rdx
    58ce:	48 89 d0             	mov    %rdx,%rax
    58d1:	48 01 c0             	add    %rax,%rax
    58d4:	48 01 d0             	add    %rdx,%rax
    58d7:	48 c1 e0 04          	shl    $0x4,%rax
    58db:	48 01 d0             	add    %rdx,%rax
    58de:	48 83 c0 2f          	add    $0x2f,%rax
    58e2:	48 89 c7             	mov    %rax,%rdi
    58e5:	e8 26 cb ff ff       	call   2410 <malloc@plt>
    58ea:	48 89 85 c8 d8 ff ff 	mov    %rax,-0x2738(%rbp)
    58f1:	48 83 bd c8 d8 ff ff 	cmpq   $0x0,-0x2738(%rbp)
    58f8:	00
    58f9:	0f 84 54 1a 00 00    	je     7353 <yyparse+0x1be5>
    58ff:	48 8b 85 b8 d8 ff ff 	mov    -0x2748(%rbp),%rax
    5906:	48 8b 8d c8 d8 ff ff 	mov    -0x2738(%rbp),%rcx
    590d:	48 8b 95 80 d8 ff ff 	mov    -0x2780(%rbp),%rdx
    5914:	48 89 d6             	mov    %rdx,%rsi
    5917:	48 89 c2             	mov    %rax,%rdx
    591a:	48 89 cf             	mov    %rcx,%rdi
    591d:	e8 ce ca ff ff       	call   23f0 <memcpy@plt>
    5922:	48 8b 85 c8 d8 ff ff 	mov    -0x2738(%rbp),%rax
    5929:	48 89 85 80 d8 ff ff 	mov    %rax,-0x2780(%rbp)
    5930:	48 8b 85 78 d8 ff ff 	mov    -0x2788(%rbp),%rax
    5937:	48 83 c0 2f          	add    $0x2f,%rax
    593b:	48 89 85 d0 d8 ff ff 	mov    %rax,-0x2730(%rbp)
    5942:	48 8b 8d d0 d8 ff ff 	mov    -0x2730(%rbp),%rcx
    5949:	48 ba ab aa aa aa aa 	movabs $0x2aaaaaaaaaaaaaab,%rdx
    5950:	aa aa 2a
    5953:	48 89 c8             	mov    %rcx,%rax
    5956:	48 f7 ea             	imul   %rdx
    5959:	48 c1 fa 03          	sar    $0x3,%rdx
    595d:	48 89 c8             	mov    %rcx,%rax
    5960:	48 c1 f8 3f          	sar    $0x3f,%rax
    5964:	48 29 c2             	sub    %rax,%rdx
    5967:	48 89 d0             	mov    %rdx,%rax
    596a:	48 01 c0             	add    %rax,%rax
    596d:	48 01 d0             	add    %rdx,%rax
    5970:	48 c1 e0 04          	shl    $0x4,%rax
    5974:	48 01 85 c8 d8 ff ff 	add    %rax,-0x2738(%rbp)
    597b:	48 8b 95 b8 d8 ff ff 	mov    -0x2748(%rbp),%rdx
    5982:	48 89 d0             	mov    %rdx,%rax
    5985:	48 01 c0             	add    %rax,%rax
    5988:	48 01 d0             	add    %rdx,%rax
    598b:	48 c1 e0 04          	shl    $0x4,%rax
    598f:	48 89 c6             	mov    %rax,%rsi
    5992:	48 8b 95 c8 d8 ff ff 	mov    -0x2738(%rbp),%rdx
    5999:	48 8b 85 90 d8 ff ff 	mov    -0x2770(%rbp),%rax
    59a0:	48 89 d1             	mov    %rdx,%rcx
    59a3:	48 89 f2             	mov    %rsi,%rdx
    59a6:	48 89 c6             	mov    %rax,%rsi
    59a9:	48 89 cf             	mov    %rcx,%rdi
    59ac:	e8 3f ca ff ff       	call   23f0 <memcpy@plt>
    59b1:	48 8b 85 c8 d8 ff ff 	mov    -0x2738(%rbp),%rax
    59b8:	48 89 85 90 d8 ff ff 	mov    %rax,-0x2770(%rbp)
    59bf:	48 8b 95 78 d8 ff ff 	mov    -0x2788(%rbp),%rdx
    59c6:	48 89 d0             	mov    %rdx,%rax
    59c9:	48 01 c0             	add    %rax,%rax
    59cc:	48 01 d0             	add    %rdx,%rax
    59cf:	48 c1 e0 04          	shl    $0x4,%rax
    59d3:	48 83 c0 2f          	add    $0x2f,%rax
    59d7:	48 89 85 d8 d8 ff ff 	mov    %rax,-0x2728(%rbp)
    59de:	48 8b 8d d8 d8 ff ff 	mov    -0x2728(%rbp),%rcx
    59e5:	48 ba ab aa aa aa aa 	movabs $0x2aaaaaaaaaaaaaab,%rdx
    59ec:	aa aa 2a
    59ef:	48 89 c8             	mov    %rcx,%rax
    59f2:	48 f7 ea             	imul   %rdx
    59f5:	48 c1 fa 03          	sar    $0x3,%rdx
    59f9:	48 89 c8             	mov    %rcx,%rax
    59fc:	48 c1 f8 3f          	sar    $0x3f,%rax
    5a00:	48 29 c2             	sub    %rax,%rdx
    5a03:	48 89 d0             	mov    %rdx,%rax
    5a06:	48 01 c0             	add    %rax,%rax
    5a09:	48 01 d0             	add    %rdx,%rax
    5a0c:	48 c1 e0 04          	shl    $0x4,%rax
    5a10:	48 01 85 c8 d8 ff ff 	add    %rax,-0x2738(%rbp)
    5a17:	48 8d 85 20 ff ff ff 	lea    -0xe0(%rbp),%rax
    5a1e:	48 39 85 c0 d8 ff ff 	cmp    %rax,-0x2740(%rbp)
    5a25:	74 0f                	je     5a36 <yyparse+0x2c8>
    5a27:	48 8b 85 c0 d8 ff ff 	mov    -0x2740(%rbp),%rax
    5a2e:	48 89 c7             	mov    %rax,%rdi
    5a31:	e8 5a c8 ff ff       	call   2290 <free@plt>
    5a36:	48 8b 85 b8 d8 ff ff 	mov    -0x2748(%rbp),%rax
    5a3d:	48 8d 50 ff          	lea    -0x1(%rax),%rdx
    5a41:	48 8b 85 80 d8 ff ff 	mov    -0x2780(%rbp),%rax
    5a48:	48 01 d0             	add    %rdx,%rax
    5a4b:	48 89 85 88 d8 ff ff 	mov    %rax,-0x2778(%rbp)
    5a52:	48 8b 95 b8 d8 ff ff 	mov    -0x2748(%rbp),%rdx
    5a59:	48 89 d0             	mov    %rdx,%rax
    5a5c:	48 01 c0             	add    %rax,%rax
    5a5f:	48 01 d0             	add    %rdx,%rax
    5a62:	48 c1 e0 04          	shl    $0x4,%rax
    5a66:	48 8d 50 d0          	lea    -0x30(%rax),%rdx
    5a6a:	48 8b 85 90 d8 ff ff 	mov    -0x2770(%rbp),%rax
    5a71:	48 01 d0             	add    %rdx,%rax
    5a74:	48 89 85 98 d8 ff ff 	mov    %rax,-0x2768(%rbp)
    5a7b:	48 8b 85 78 d8 ff ff 	mov    -0x2788(%rbp),%rax
    5a82:	48 8d 50 ff          	lea    -0x1(%rax),%rdx
    5a86:	48 8b 85 80 d8 ff ff 	mov    -0x2780(%rbp),%rax
    5a8d:	48 01 d0             	add    %rdx,%rax
    5a90:	48 39 85 88 d8 ff ff 	cmp    %rax,-0x2778(%rbp)
    5a97:	0f 83 a3 18 00 00    	jae    7340 <yyparse+0x1bd2>
    5a9d:	83 bd 44 d8 ff ff 05 	cmpl   $0x5,-0x27bc(%rbp)
    5aa4:	0f 84 89 18 00 00    	je     7333 <yyparse+0x1bc5>
    5aaa:	90                   	nop
    5aab:	8b 85 44 d8 ff ff    	mov    -0x27bc(%rbp),%eax
    5ab1:	48 98                	cltq
    5ab3:	48 8d 14 00          	lea    (%rax,%rax,1),%rdx
    5ab7:	48 8d 05 02 2b 01 00 	lea    0x12b02(%rip),%rax        # 185c0 <yypact>
    5abe:	0f b7 04 02          	movzwl (%rdx,%rax,1),%eax
    5ac2:	98                   	cwtl
    5ac3:	89 85 4c d8 ff ff    	mov    %eax,-0x27b4(%rbp)
    5ac9:	83 bd 4c d8 ff ff 95 	cmpl   $0xffffff95,-0x27b4(%rbp)
    5ad0:	0f 84 90 01 00 00    	je     5c66 <yyparse+0x4f8>
    5ad6:	8b 05 e4 bb 01 00    	mov    0x1bbe4(%rip),%eax        # 216c0 <yychar>
    5adc:	83 f8 fe             	cmp    $0xfffffffe,%eax
    5adf:	75 0b                	jne    5aec <yyparse+0x37e>
    5ae1:	e8 67 cf ff ff       	call   2a4d <yylex>
    5ae6:	89 05 d4 bb 01 00    	mov    %eax,0x1bbd4(%rip)        # 216c0 <yychar>
    5aec:	8b 05 ce bb 01 00    	mov    0x1bbce(%rip),%eax        # 216c0 <yychar>
    5af2:	85 c0                	test   %eax,%eax
    5af4:	7f 16                	jg     5b0c <yyparse+0x39e>
    5af6:	c7 05 c0 bb 01 00 00 	movl   $0x0,0x1bbc0(%rip)        # 216c0 <yychar>
    5afd:	00 00 00
    5b00:	c7 85 54 d8 ff ff 00 	movl   $0x0,-0x27ac(%rbp)
    5b07:	00 00 00
    5b0a:	eb 60                	jmp    5b6c <yyparse+0x3fe>
    5b0c:	8b 05 ae bb 01 00    	mov    0x1bbae(%rip),%eax        # 216c0 <yychar>
    5b12:	3d 00 01 00 00       	cmp    $0x100,%eax
    5b17:	75 19                	jne    5b32 <yyparse+0x3c4>
    5b19:	c7 05 9d bb 01 00 01 	movl   $0x101,0x1bb9d(%rip)        # 216c0 <yychar>
    5b20:	01 00 00
    5b23:	c7 85 54 d8 ff ff 01 	movl   $0x1,-0x27ac(%rbp)
    5b2a:	00 00 00
    5b2d:	e9 a4 16 00 00       	jmp    71d6 <yyparse+0x1a68>
    5b32:	8b 05 88 bb 01 00    	mov    0x1bb88(%rip),%eax        # 216c0 <yychar>
    5b38:	85 c0                	test   %eax,%eax
    5b3a:	78 25                	js     5b61 <yyparse+0x3f3>
    5b3c:	8b 05 7e bb 01 00    	mov    0x1bb7e(%rip),%eax        # 216c0 <yychar>
    5b42:	3d 38 01 00 00       	cmp    $0x138,%eax
    5b47:	7f 18                	jg     5b61 <yyparse+0x3f3>
    5b49:	8b 05 71 bb 01 00    	mov    0x1bb71(%rip),%eax        # 216c0 <yychar>
    5b4f:	48 98                	cltq
    5b51:	48 8d 15 28 25 01 00 	lea    0x12528(%rip),%rdx        # 18080 <yytranslate>
    5b58:	0f b6 04 10          	movzbl (%rax,%rdx,1),%eax
    5b5c:	0f be c0             	movsbl %al,%eax
    5b5f:	eb 05                	jmp    5b66 <yyparse+0x3f8>
    5b61:	b8 02 00 00 00       	mov    $0x2,%eax
    5b66:	89 85 54 d8 ff ff    	mov    %eax,-0x27ac(%rbp)
    5b6c:	8b 85 54 d8 ff ff    	mov    -0x27ac(%rbp),%eax
    5b72:	01 85 4c d8 ff ff    	add    %eax,-0x27b4(%rbp)
    5b78:	83 bd 4c d8 ff ff 00 	cmpl   $0x0,-0x27b4(%rbp)
    5b7f:	0f 88 e4 00 00 00    	js     5c69 <yyparse+0x4fb>
    5b85:	81 bd 4c d8 ff ff af 	cmpl   $0xaf,-0x27b4(%rbp)
    5b8c:	00 00 00
    5b8f:	0f 8f d4 00 00 00    	jg     5c69 <yyparse+0x4fb>
    5b95:	8b 85 4c d8 ff ff    	mov    -0x27b4(%rbp),%eax
    5b9b:	48 98                	cltq
    5b9d:	48 8d 14 00          	lea    (%rax,%rax,1),%rdx
    5ba1:	48 8d 05 38 2e 01 00 	lea    0x12e38(%rip),%rax        # 189e0 <yycheck>
    5ba8:	0f b7 04 02          	movzwl (%rdx,%rax,1),%eax
    5bac:	98                   	cwtl
    5bad:	39 85 54 d8 ff ff    	cmp    %eax,-0x27ac(%rbp)
    5bb3:	0f 85 b0 00 00 00    	jne    5c69 <yyparse+0x4fb>
    5bb9:	8b 85 4c d8 ff ff    	mov    -0x27b4(%rbp),%eax
    5bbf:	48 98                	cltq
    5bc1:	48 8d 14 00          	lea    (%rax,%rax,1),%rdx
    5bc5:	48 8d 05 b4 2c 01 00 	lea    0x12cb4(%rip),%rax        # 18880 <yytable>
    5bcc:	0f b7 04 02          	movzwl (%rdx,%rax,1),%eax
    5bd0:	98                   	cwtl
    5bd1:	89 85 4c d8 ff ff    	mov    %eax,-0x27b4(%rbp)
    5bd7:	83 bd 4c d8 ff ff 00 	cmpl   $0x0,-0x27b4(%rbp)
    5bde:	7f 0b                	jg     5beb <yyparse+0x47d>
    5be0:	f7 9d 4c d8 ff ff    	negl   -0x27b4(%rbp)
    5be6:	e9 a9 00 00 00       	jmp    5c94 <yyparse+0x526>
    5beb:	83 bd 48 d8 ff ff 00 	cmpl   $0x0,-0x27b8(%rbp)
    5bf2:	74 07                	je     5bfb <yyparse+0x48d>
    5bf4:	83 ad 48 d8 ff ff 01 	subl   $0x1,-0x27b8(%rbp)
    5bfb:	8b 85 4c d8 ff ff    	mov    -0x27b4(%rbp),%eax
    5c01:	89 85 44 d8 ff ff    	mov    %eax,-0x27bc(%rbp)
    5c07:	48 83 85 98 d8 ff ff 	addq   $0x30,-0x2768(%rbp)
    5c0e:	30
    5c0f:	48 8b 85 98 d8 ff ff 	mov    -0x2768(%rbp),%rax
    5c16:	48 8b 0d c3 ba 01 00 	mov    0x1bac3(%rip),%rcx        # 216e0 <yylval>
    5c1d:	48 8b 1d c4 ba 01 00 	mov    0x1bac4(%rip),%rbx        # 216e8 <yylval+0x8>
    5c24:	48 89 08             	mov    %rcx,(%rax)
    5c27:	48 89 58 08          	mov    %rbx,0x8(%rax)
    5c2b:	48 8b 0d be ba 01 00 	mov    0x1babe(%rip),%rcx        # 216f0 <yylval+0x10>
    5c32:	48 8b 1d bf ba 01 00 	mov    0x1babf(%rip),%rbx        # 216f8 <yylval+0x18>
    5c39:	48 89 48 10          	mov    %rcx,0x10(%rax)
    5c3d:	48 89 58 18          	mov    %rbx,0x18(%rax)
    5c41:	48 8b 0d b8 ba 01 00 	mov    0x1bab8(%rip),%rcx        # 21700 <yylval+0x20>
    5c48:	48 8b 1d b9 ba 01 00 	mov    0x1bab9(%rip),%rbx        # 21708 <yylval+0x28>
    5c4f:	48 89 48 20          	mov    %rcx,0x20(%rax)
    5c53:	48 89 58 28          	mov    %rbx,0x28(%rax)
    5c57:	c7 05 5f ba 01 00 fe 	movl   $0xfffffffe,0x1ba5f(%rip)        # 216c0 <yychar>
    5c5e:	ff ff ff
    5c61:	e9 cf fb ff ff       	jmp    5835 <yyparse+0xc7>
    5c66:	90                   	nop
    5c67:	eb 01                	jmp    5c6a <yyparse+0x4fc>
    5c69:	90                   	nop
    5c6a:	8b 85 44 d8 ff ff    	mov    -0x27bc(%rbp),%eax
    5c70:	48 98                	cltq
    5c72:	48 8d 15 a7 2a 01 00 	lea    0x12aa7(%rip),%rdx        # 18720 <yydefact>
    5c79:	0f b6 04 10          	movzbl (%rax,%rdx,1),%eax
    5c7d:	0f be c0             	movsbl %al,%eax
    5c80:	89 85 4c d8 ff ff    	mov    %eax,-0x27b4(%rbp)
    5c86:	83 bd 4c d8 ff ff 00 	cmpl   $0x0,-0x27b4(%rbp)
    5c8d:	0f 84 5f 13 00 00    	je     6ff2 <yyparse+0x1884>
    5c93:	90                   	nop
    5c94:	8b 85 4c d8 ff ff    	mov    -0x27b4(%rbp),%eax
    5c9a:	48 98                	cltq
    5c9c:	48 8d 15 bd 2f 01 00 	lea    0x12fbd(%rip),%rdx        # 18c60 <yyr2>
    5ca3:	0f b6 04 10          	movzbl (%rax,%rdx,1),%eax
    5ca7:	0f be c0             	movsbl %al,%eax
    5caa:	89 85 58 d8 ff ff    	mov    %eax,-0x27a8(%rbp)
    5cb0:	b8 01 00 00 00       	mov    $0x1,%eax
    5cb5:	2b 85 58 d8 ff ff    	sub    -0x27a8(%rbp),%eax
    5cbb:	48 63 d0             	movslq %eax,%rdx
    5cbe:	48 89 d0             	mov    %rdx,%rax
    5cc1:	48 01 c0             	add    %rax,%rax
    5cc4:	48 01 d0             	add    %rdx,%rax
    5cc7:	48 c1 e0 04          	shl    $0x4,%rax
    5ccb:	48 89 c2             	mov    %rax,%rdx
    5cce:	48 8b 85 98 d8 ff ff 	mov    -0x2768(%rbp),%rax
    5cd5:	48 01 d0             	add    %rdx,%rax
    5cd8:	48 8b 08             	mov    (%rax),%rcx
    5cdb:	48 8b 58 08          	mov    0x8(%rax),%rbx
    5cdf:	48 89 8d f0 d8 ff ff 	mov    %rcx,-0x2710(%rbp)
    5ce6:	48 89 9d f8 d8 ff ff 	mov    %rbx,-0x2708(%rbp)
    5ced:	48 8b 48 10          	mov    0x10(%rax),%rcx
    5cf1:	48 8b 58 18          	mov    0x18(%rax),%rbx
    5cf5:	48 89 8d 00 d9 ff ff 	mov    %rcx,-0x2700(%rbp)
    5cfc:	48 89 9d 08 d9 ff ff 	mov    %rbx,-0x26f8(%rbp)
    5d03:	48 8b 50 28          	mov    0x28(%rax),%rdx
    5d07:	48 8b 40 20          	mov    0x20(%rax),%rax
    5d0b:	48 89 85 10 d9 ff ff 	mov    %rax,-0x26f0(%rbp)
    5d12:	48 89 95 18 d9 ff ff 	mov    %rdx,-0x26e8(%rbp)
    5d19:	83 bd 4c d8 ff ff 58 	cmpl   $0x58,-0x27b4(%rbp)
    5d20:	0f 87 76 11 00 00    	ja     6e9c <yyparse+0x172e>
    5d26:	8b 85 4c d8 ff ff    	mov    -0x27b4(%rbp),%eax
    5d2c:	48 8d 14 85 00 00 00 	lea    0x0(,%rax,4),%rdx
    5d33:	00
    5d34:	48 8d 05 29 31 01 00 	lea    0x13129(%rip),%rax        # 18e64 <yyr2+0x204>
    5d3b:	8b 04 02             	mov    (%rdx,%rax,1),%eax
    5d3e:	48 98                	cltq
    5d40:	48 8d 15 1d 31 01 00 	lea    0x1311d(%rip),%rdx        # 18e64 <yyr2+0x204>
    5d47:	48 01 d0             	add    %rdx,%rax
    5d4a:	3e ff e0             	notrack jmp *%rax
    5d4d:	48 8b 85 98 d8 ff ff 	mov    -0x2768(%rbp),%rax
    5d54:	48 83 e8 30          	sub    $0x30,%rax
    5d58:	48 8b 00             	mov    (%rax),%rax
    5d5b:	48 89 85 f0 d8 ff ff 	mov    %rax,-0x2710(%rbp)
    5d62:	e9 36 11 00 00       	jmp    6e9d <yyparse+0x172f>
    5d67:	48 c7 85 f0 d8 ff ff 	movq   $0x0,-0x2710(%rbp)
    5d6e:	00 00 00 00
    5d72:	e9 26 11 00 00       	jmp    6e9d <yyparse+0x172f>
    5d77:	48 8b 85 98 d8 ff ff 	mov    -0x2768(%rbp),%rax
    5d7e:	48 83 e8 60          	sub    $0x60,%rax
    5d82:	48 8b 38             	mov    (%rax),%rdi
    5d85:	48 8b 85 98 d8 ff ff 	mov    -0x2768(%rbp),%rax
    5d8c:	48 2d 90 00 00 00    	sub    $0x90,%rax
    5d92:	4c 8b 08             	mov    (%rax),%r9
    5d95:	48 8b 85 98 d8 ff ff 	mov    -0x2768(%rbp),%rax
    5d9c:	48 2d f0 00 00 00    	sub    $0xf0,%rax
    5da2:	4c 8b 00             	mov    (%rax),%r8
    5da5:	48 8b 85 98 d8 ff ff 	mov    -0x2768(%rbp),%rax
    5dac:	48 2d c0 00 00 00    	sub    $0xc0,%rax
    5db2:	48 8b 08             	mov    (%rax),%rcx
    5db5:	48 8b 85 98 d8 ff ff 	mov    -0x2768(%rbp),%rax
    5dbc:	48 2d 50 01 00 00    	sub    $0x150,%rax
    5dc2:	48 8b 10             	mov    (%rax),%rdx
    5dc5:	48 8b 85 98 d8 ff ff 	mov    -0x2768(%rbp),%rax
    5dcc:	48 2d 80 01 00 00    	sub    $0x180,%rax
    5dd2:	48 8b 30             	mov    (%rax),%rsi
    5dd5:	48 8b 85 98 d8 ff ff 	mov    -0x2768(%rbp),%rax
    5ddc:	48 2d 80 01 00 00    	sub    $0x180,%rax
    5de2:	8b 40 08             	mov    0x8(%rax),%eax
    5de5:	48 83 ec 08          	sub    $0x8,%rsp
    5de9:	57                   	push   %rdi
    5dea:	89 c7                	mov    %eax,%edi
    5dec:	e8 2f 37 00 00       	call   9520 <mk_program>
    5df1:	48 83 c4 10          	add    $0x10,%rsp
    5df5:	48 89 05 74 b2 01 00 	mov    %rax,0x1b274(%rip)        # 21070 <parse_tree>
    5dfc:	b8 ff ff ff ff       	mov    $0xffffffff,%eax
    5e01:	e9 9e 16 00 00       	jmp    74a4 <yyparse+0x1d36>
    5e06:	48 8b 05 d3 b8 01 00 	mov    0x1b8d3(%rip),%rax        # 216e0 <yylval>
    5e0d:	48 89 85 f0 d8 ff ff 	mov    %rax,-0x2710(%rbp)
    5e14:	8b 05 fa b1 01 00    	mov    0x1b1fa(%rip),%eax        # 21014 <line_num>
    5e1a:	89 85 f8 d8 ff ff    	mov    %eax,-0x2708(%rbp)
    5e20:	e9 78 10 00 00       	jmp    6e9d <yyparse+0x172f>
    5e25:	8b 05 b5 b8 01 00    	mov    0x1b8b5(%rip),%eax        # 216e0 <yylval>
    5e2b:	89 85 f0 d8 ff ff    	mov    %eax,-0x2710(%rbp)
    5e31:	e9 67 10 00 00       	jmp    6e9d <yyparse+0x172f>
    5e36:	f3 0f 10 05 a2 b8 01 	movss  0x1b8a2(%rip),%xmm0        # 216e0 <yylval>
    5e3d:	00
    5e3e:	f3 0f 11 85 f0 d8 ff 	movss  %xmm0,-0x2710(%rbp)
    5e45:	ff
    5e46:	e9 52 10 00 00       	jmp    6e9d <yyparse+0x172f>
    5e4b:	48 8b 05 8e b8 01 00 	mov    0x1b88e(%rip),%rax        # 216e0 <yylval>
    5e52:	48 89 85 f0 d8 ff ff 	mov    %rax,-0x2710(%rbp)
    5e59:	e9 3f 10 00 00       	jmp    6e9d <yyparse+0x172f>
    5e5e:	8b 05 7c b8 01 00    	mov    0x1b87c(%rip),%eax        # 216e0 <yylval>
    5e64:	89 85 f0 d8 ff ff    	mov    %eax,-0x2710(%rbp)
    5e6a:	e9 2e 10 00 00       	jmp    6e9d <yyparse+0x172f>
    5e6f:	8b 05 6b b8 01 00    	mov    0x1b86b(%rip),%eax        # 216e0 <yylval>
    5e75:	89 85 f0 d8 ff ff    	mov    %eax,-0x2710(%rbp)
    5e7b:	e9 1d 10 00 00       	jmp    6e9d <yyparse+0x172f>
    5e80:	8b 05 5a b8 01 00    	mov    0x1b85a(%rip),%eax        # 216e0 <yylval>
    5e86:	89 85 f0 d8 ff ff    	mov    %eax,-0x2710(%rbp)
    5e8c:	e9 0c 10 00 00       	jmp    6e9d <yyparse+0x172f>
    5e91:	48 8b 85 98 d8 ff ff 	mov    -0x2768(%rbp),%rax
    5e98:	48 8b 00             	mov    (%rax),%rax
    5e9b:	be 03 00 00 00       	mov    $0x3,%esi
    5ea0:	48 89 c7             	mov    %rax,%rdi
    5ea3:	e8 9f 1b 00 00       	call   7a47 <CreateListNode>
    5ea8:	48 89 85 f0 d8 ff ff 	mov    %rax,-0x2710(%rbp)
    5eaf:	48 8b 85 98 d8 ff ff 	mov    -0x2768(%rbp),%rax
    5eb6:	8b 40 08             	mov    0x8(%rax),%eax
    5eb9:	89 85 f8 d8 ff ff    	mov    %eax,-0x2708(%rbp)
    5ebf:	e9 d9 0f 00 00       	jmp    6e9d <yyparse+0x172f>
    5ec4:	48 8b 85 98 d8 ff ff 	mov    -0x2768(%rbp),%rax
    5ecb:	48 8b 00             	mov    (%rax),%rax
    5ece:	be 03 00 00 00       	mov    $0x3,%esi
    5ed3:	48 89 c7             	mov    %rax,%rdi
    5ed6:	e8 6c 1b 00 00       	call   7a47 <CreateListNode>
    5edb:	48 89 c2             	mov    %rax,%rdx
    5ede:	48 8b 85 98 d8 ff ff 	mov    -0x2768(%rbp),%rax
    5ee5:	48 83 e8 60          	sub    $0x60,%rax
    5ee9:	48 8b 00             	mov    (%rax),%rax
    5eec:	48 89 d6             	mov    %rdx,%rsi
    5eef:	48 89 c7             	mov    %rax,%rdi
    5ef2:	e8 1c 1c 00 00       	call   7b13 <PushListNodeBack>
    5ef7:	48 89 85 f0 d8 ff ff 	mov    %rax,-0x2710(%rbp)
    5efe:	48 8b 85 98 d8 ff ff 	mov    -0x2768(%rbp),%rax
    5f05:	48 83 e8 60          	sub    $0x60,%rax
    5f09:	8b 40 08             	mov    0x8(%rax),%eax
    5f0c:	89 85 f8 d8 ff ff    	mov    %eax,-0x2708(%rbp)
    5f12:	e9 86 0f 00 00       	jmp    6e9d <yyparse+0x172f>
    5f17:	48 8b 85 98 d8 ff ff 	mov    -0x2768(%rbp),%rax
    5f1e:	48 83 e8 30          	sub    $0x30,%rax
    5f22:	8b 00                	mov    (%rax),%eax
    5f24:	3d 11 01 00 00       	cmp    $0x111,%eax
    5f29:	75 5d                	jne    5f88 <yyparse+0x81a>
    5f2b:	48 8b 85 98 d8 ff ff 	mov    -0x2768(%rbp),%rax
    5f32:	48 83 e8 30          	sub    $0x30,%rax
    5f36:	8b 78 14             	mov    0x14(%rax),%edi
    5f39:	48 8b 85 98 d8 ff ff 	mov    -0x2768(%rbp),%rax
    5f40:	48 83 e8 30          	sub    $0x30,%rax
    5f44:	8b 48 10             	mov    0x10(%rax),%ecx
    5f47:	48 8b 85 98 d8 ff ff 	mov    -0x2768(%rbp),%rax
    5f4e:	48 83 e8 30          	sub    $0x30,%rax
    5f52:	8b 50 04             	mov    0x4(%rax),%edx
    5f55:	48 8b 85 98 d8 ff ff 	mov    -0x2768(%rbp),%rax
    5f5c:	48 2d 90 00 00 00    	sub    $0x90,%rax
    5f62:	48 8b 30             	mov    (%rax),%rsi
    5f65:	48 8b 85 98 d8 ff ff 	mov    -0x2768(%rbp),%rax
    5f6c:	48 2d 90 00 00 00    	sub    $0x90,%rax
    5f72:	8b 40 08             	mov    0x8(%rax),%eax
    5f75:	41 89 f8             	mov    %edi,%r8d
    5f78:	89 c7                	mov    %eax,%edi
    5f7a:	e8 52 38 00 00       	call   97d1 <mk_arraydecl>
    5f7f:	48 89 85 a0 d8 ff ff 	mov    %rax,-0x2760(%rbp)
    5f86:	eb 4b                	jmp    5fd3 <yyparse+0x865>
    5f88:	48 8b 85 98 d8 ff ff 	mov    -0x2768(%rbp),%rax
    5f8f:	48 83 e8 30          	sub    $0x30,%rax
    5f93:	48 8b 48 08          	mov    0x8(%rax),%rcx
    5f97:	48 8b 85 98 d8 ff ff 	mov    -0x2768(%rbp),%rax
    5f9e:	48 83 e8 30          	sub    $0x30,%rax
    5fa2:	8b 50 04             	mov    0x4(%rax),%edx
    5fa5:	48 8b 85 98 d8 ff ff 	mov    -0x2768(%rbp),%rax
    5fac:	48 2d 90 00 00 00    	sub    $0x90,%rax
    5fb2:	48 8b 30             	mov    (%rax),%rsi
    5fb5:	48 8b 85 98 d8 ff ff 	mov    -0x2768(%rbp),%rax
    5fbc:	48 2d 90 00 00 00    	sub    $0x90,%rax
    5fc2:	8b 40 08             	mov    0x8(%rax),%eax
    5fc5:	89 c7                	mov    %eax,%edi
    5fc7:	e8 a1 37 00 00       	call   976d <mk_vardecl>
    5fcc:	48 89 85 a0 d8 ff ff 	mov    %rax,-0x2760(%rbp)
    5fd3:	48 8b 85 98 d8 ff ff 	mov    -0x2768(%rbp),%rax
    5fda:	48 2d f0 00 00 00    	sub    $0xf0,%rax
    5fe0:	48 8b 00             	mov    (%rax),%rax
    5fe3:	48 85 c0             	test   %rax,%rax
    5fe6:	75 20                	jne    6008 <yyparse+0x89a>
    5fe8:	48 8b 85 a0 d8 ff ff 	mov    -0x2760(%rbp),%rax
    5fef:	be 00 00 00 00       	mov    $0x0,%esi
    5ff4:	48 89 c7             	mov    %rax,%rdi
    5ff7:	e8 4b 1a 00 00       	call   7a47 <CreateListNode>
    5ffc:	48 89 85 f0 d8 ff ff 	mov    %rax,-0x2710(%rbp)
    6003:	e9 95 0e 00 00       	jmp    6e9d <yyparse+0x172f>
    6008:	48 8b 85 a0 d8 ff ff 	mov    -0x2760(%rbp),%rax
    600f:	be 00 00 00 00       	mov    $0x0,%esi
    6014:	48 89 c7             	mov    %rax,%rdi
    6017:	e8 2b 1a 00 00       	call   7a47 <CreateListNode>
    601c:	48 89 c2             	mov    %rax,%rdx
    601f:	48 8b 85 98 d8 ff ff 	mov    -0x2768(%rbp),%rax
    6026:	48 2d f0 00 00 00    	sub    $0xf0,%rax
    602c:	48 8b 00             	mov    (%rax),%rax
    602f:	48 89 d6             	mov    %rdx,%rsi
    6032:	48 89 c7             	mov    %rax,%rdi
    6035:	e8 d9 1a 00 00       	call   7b13 <PushListNodeBack>
    603a:	48 89 85 f0 d8 ff ff 	mov    %rax,-0x2710(%rbp)
    6041:	e9 57 0e 00 00       	jmp    6e9d <yyparse+0x172f>
    6046:	48 c7 85 f0 d8 ff ff 	movq   $0x0,-0x2710(%rbp)
    604d:	00 00 00 00
    6051:	e9 47 0e 00 00       	jmp    6e9d <yyparse+0x172f>
    6056:	48 8b 85 98 d8 ff ff 	mov    -0x2768(%rbp),%rax
    605d:	48 8b 00             	mov    (%rax),%rax
    6060:	48 89 85 f0 d8 ff ff 	mov    %rax,-0x2710(%rbp)
    6067:	e9 31 0e 00 00       	jmp    6e9d <yyparse+0x172f>
    606c:	48 c7 85 f0 d8 ff ff 	movq   $0x0,-0x2710(%rbp)
    6073:	00 00 00 00
    6077:	e9 21 0e 00 00       	jmp    6e9d <yyparse+0x172f>
    607c:	48 8b 85 98 d8 ff ff 	mov    -0x2768(%rbp),%rax
    6083:	48 8b 00             	mov    (%rax),%rax
    6086:	be 00 00 00 00       	mov    $0x0,%esi
    608b:	48 89 c7             	mov    %rax,%rdi
    608e:	e8 b4 19 00 00       	call   7a47 <CreateListNode>
    6093:	48 89 85 f0 d8 ff ff 	mov    %rax,-0x2710(%rbp)
    609a:	e9 fe 0d 00 00       	jmp    6e9d <yyparse+0x172f>
    609f:	48 8b 85 98 d8 ff ff 	mov    -0x2768(%rbp),%rax
    60a6:	48 8b 00             	mov    (%rax),%rax
    60a9:	be 00 00 00 00       	mov    $0x0,%esi
    60ae:	48 89 c7             	mov    %rax,%rdi
    60b1:	e8 91 19 00 00       	call   7a47 <CreateListNode>
    60b6:	48 89 c2             	mov    %rax,%rdx
    60b9:	48 8b 85 98 d8 ff ff 	mov    -0x2768(%rbp),%rax
    60c0:	48 83 e8 30          	sub    $0x30,%rax
    60c4:	48 8b 00             	mov    (%rax),%rax
    60c7:	48 89 d6             	mov    %rdx,%rsi
    60ca:	48 89 c7             	mov    %rax,%rdi
    60cd:	e8 41 1a 00 00       	call   7b13 <PushListNodeBack>
    60d2:	48 89 85 f0 d8 ff ff 	mov    %rax,-0x2710(%rbp)
    60d9:	e9 bf 0d 00 00       	jmp    6e9d <yyparse+0x172f>
    60de:	48 8b 85 98 d8 ff ff 	mov    -0x2768(%rbp),%rax
    60e5:	48 2d c0 00 00 00    	sub    $0xc0,%rax
    60eb:	8b 00                	mov    (%rax),%eax
    60ed:	3d 25 01 00 00       	cmp    $0x125,%eax
    60f2:	74 0f                	je     6103 <yyparse+0x995>
    60f4:	48 8d 05 e5 2c 01 00 	lea    0x12ce5(%rip),%rax        # 18de0 <yyr2+0x180>
    60fb:	48 89 c7             	mov    %rax,%rdi
    60fe:	e8 bb 13 00 00       	call   74be <yyerror>
    6103:	48 8b 85 98 d8 ff ff 	mov    -0x2768(%rbp),%rax
    610a:	48 83 e8 30          	sub    $0x30,%rax
    610e:	8b 08                	mov    (%rax),%ecx
    6110:	48 8b 85 98 d8 ff ff 	mov    -0x2768(%rbp),%rax
    6117:	48 2d 90 00 00 00    	sub    $0x90,%rax
    611d:	8b 10                	mov    (%rax),%edx
    611f:	48 8b 85 98 d8 ff ff 	mov    -0x2768(%rbp),%rax
    6126:	48 2d f0 00 00 00    	sub    $0xf0,%rax
    612c:	48 8b 30             	mov    (%rax),%rsi
    612f:	48 8b 85 98 d8 ff ff 	mov    -0x2768(%rbp),%rax
    6136:	48 2d f0 00 00 00    	sub    $0xf0,%rax
    613c:	8b 40 08             	mov    0x8(%rax),%eax
    613f:	89 c7                	mov    %eax,%edi
    6141:	e8 6d 34 00 00       	call   95b3 <mk_typedecl>
    6146:	48 89 85 f0 d8 ff ff 	mov    %rax,-0x2710(%rbp)
    614d:	e9 4b 0d 00 00       	jmp    6e9d <yyparse+0x172f>
    6152:	48 8b 85 98 d8 ff ff 	mov    -0x2768(%rbp),%rax
    6159:	8b 00                	mov    (%rax),%eax
    615b:	89 85 f0 d8 ff ff    	mov    %eax,-0x2710(%rbp)
    6161:	e9 37 0d 00 00       	jmp    6e9d <yyparse+0x172f>
    6166:	48 8b 85 98 d8 ff ff 	mov    -0x2768(%rbp),%rax
    616d:	48 83 e8 30          	sub    $0x30,%rax
    6171:	8b 00                	mov    (%rax),%eax
    6173:	3d 2d 01 00 00       	cmp    $0x12d,%eax
    6178:	75 16                	jne    6190 <yyparse+0xa22>
    617a:	48 8b 85 98 d8 ff ff 	mov    -0x2768(%rbp),%rax
    6181:	8b 00                	mov    (%rax),%eax
    6183:	f7 d8                	neg    %eax
    6185:	89 85 f0 d8 ff ff    	mov    %eax,-0x2710(%rbp)
    618b:	e9 0d 0d 00 00       	jmp    6e9d <yyparse+0x172f>
    6190:	48 8b 85 98 d8 ff ff 	mov    -0x2768(%rbp),%rax
    6197:	8b 00                	mov    (%rax),%eax
    6199:	89 85 f0 d8 ff ff    	mov    %eax,-0x2710(%rbp)
    619f:	e9 f9 0c 00 00       	jmp    6e9d <yyparse+0x172f>
    61a4:	c7 85 f0 d8 ff ff 16 	movl   $0x116,-0x2710(%rbp)
    61ab:	01 00 00
    61ae:	48 8b 85 98 d8 ff ff 	mov    -0x2768(%rbp),%rax
    61b5:	8b 00                	mov    (%rax),%eax
    61b7:	89 85 f4 d8 ff ff    	mov    %eax,-0x270c(%rbp)
    61bd:	48 c7 85 f8 d8 ff ff 	movq   $0x0,-0x2708(%rbp)
    61c4:	00 00 00 00
    61c8:	e9 d0 0c 00 00       	jmp    6e9d <yyparse+0x172f>
    61cd:	c7 85 f0 d8 ff ff 11 	movl   $0x111,-0x2710(%rbp)
    61d4:	01 00 00
    61d7:	48 8b 85 98 d8 ff ff 	mov    -0x2768(%rbp),%rax
    61de:	8b 00                	mov    (%rax),%eax
    61e0:	89 85 f4 d8 ff ff    	mov    %eax,-0x270c(%rbp)
    61e6:	48 c7 85 f8 d8 ff ff 	movq   $0x0,-0x2708(%rbp)
    61ed:	00 00 00 00
    61f1:	48 8b 85 98 d8 ff ff 	mov    -0x2768(%rbp),%rax
    61f8:	48 2d f0 00 00 00    	sub    $0xf0,%rax
    61fe:	8b 00                	mov    (%rax),%eax
    6200:	89 85 00 d9 ff ff    	mov    %eax,-0x2700(%rbp)
    6206:	48 8b 85 98 d8 ff ff 	mov    -0x2768(%rbp),%rax
    620d:	48 2d 90 00 00 00    	sub    $0x90,%rax
    6213:	8b 00                	mov    (%rax),%eax
    6215:	89 85 04 d9 ff ff    	mov    %eax,-0x26fc(%rbp)
    621b:	e9 7d 0c 00 00       	jmp    6e9d <yyparse+0x172f>
    6220:	c7 85 f0 d8 ff ff 0f 	movl   $0x10f,-0x2710(%rbp)
    6227:	01 00 00
    622a:	48 8b 85 98 d8 ff ff 	mov    -0x2768(%rbp),%rax
    6231:	48 8b 00             	mov    (%rax),%rax
    6234:	48 89 85 f8 d8 ff ff 	mov    %rax,-0x2708(%rbp)
    623b:	c7 85 f4 d8 ff ff ff 	movl   $0xffffffff,-0x270c(%rbp)
    6242:	ff ff ff
    6245:	e9 53 0c 00 00       	jmp    6e9d <yyparse+0x172f>
    624a:	c7 85 f0 d8 ff ff 0a 	movl   $0x10a,-0x2710(%rbp)
    6251:	01 00 00
    6254:	e9 44 0c 00 00       	jmp    6e9d <yyparse+0x172f>
    6259:	c7 85 f0 d8 ff ff 0b 	movl   $0x10b,-0x2710(%rbp)
    6260:	01 00 00
    6263:	e9 35 0c 00 00       	jmp    6e9d <yyparse+0x172f>
    6268:	c7 85 f0 d8 ff ff 0c 	movl   $0x10c,-0x2710(%rbp)
    626f:	01 00 00
    6272:	e9 26 0c 00 00       	jmp    6e9d <yyparse+0x172f>
    6277:	48 8b 85 98 d8 ff ff 	mov    -0x2768(%rbp),%rax
    627e:	48 83 e8 60          	sub    $0x60,%rax
    6282:	48 8b 00             	mov    (%rax),%rax
    6285:	48 85 c0             	test   %rax,%rax
    6288:	75 27                	jne    62b1 <yyparse+0xb43>
    628a:	48 8b 85 98 d8 ff ff 	mov    -0x2768(%rbp),%rax
    6291:	48 83 e8 30          	sub    $0x30,%rax
    6295:	48 8b 00             	mov    (%rax),%rax
    6298:	be 00 00 00 00       	mov    $0x0,%esi
    629d:	48 89 c7             	mov    %rax,%rdi
    62a0:	e8 a2 17 00 00       	call   7a47 <CreateListNode>
    62a5:	48 89 85 f0 d8 ff ff 	mov    %rax,-0x2710(%rbp)
    62ac:	e9 ec 0b 00 00       	jmp    6e9d <yyparse+0x172f>
    62b1:	48 8b 85 98 d8 ff ff 	mov    -0x2768(%rbp),%rax
    62b8:	48 83 e8 30          	sub    $0x30,%rax
    62bc:	48 8b 00             	mov    (%rax),%rax
    62bf:	be 00 00 00 00       	mov    $0x0,%esi
    62c4:	48 89 c7             	mov    %rax,%rdi
    62c7:	e8 7b 17 00 00       	call   7a47 <CreateListNode>
    62cc:	48 89 c2             	mov    %rax,%rdx
    62cf:	48 8b 85 98 d8 ff ff 	mov    -0x2768(%rbp),%rax
    62d6:	48 83 e8 60          	sub    $0x60,%rax
    62da:	48 8b 00             	mov    (%rax),%rax
    62dd:	48 89 d6             	mov    %rdx,%rsi
    62e0:	48 89 c7             	mov    %rax,%rdi
    62e3:	e8 2b 18 00 00       	call   7b13 <PushListNodeBack>
    62e8:	48 89 85 f0 d8 ff ff 	mov    %rax,-0x2710(%rbp)
    62ef:	e9 a9 0b 00 00       	jmp    6e9d <yyparse+0x172f>
    62f4:	48 c7 85 f0 d8 ff ff 	movq   $0x0,-0x2710(%rbp)
    62fb:	00 00 00 00
    62ff:	e9 99 0b 00 00       	jmp    6e9d <yyparse+0x172f>
    6304:	48 8b 85 98 d8 ff ff 	mov    -0x2768(%rbp),%rax
    630b:	48 2d 90 00 00 00    	sub    $0x90,%rax
    6311:	8b 00                	mov    (%rax),%eax
    6313:	3d 04 01 00 00       	cmp    $0x104,%eax
    6318:	0f 85 84 00 00 00    	jne    63a2 <yyparse+0xc34>
    631e:	48 8b 85 98 d8 ff ff 	mov    -0x2768(%rbp),%rax
    6325:	48 2d 90 00 00 00    	sub    $0x90,%rax
    632b:	8b 78 28             	mov    0x28(%rax),%edi
    632e:	48 8b 85 98 d8 ff ff 	mov    -0x2768(%rbp),%rax
    6335:	4c 8b 08             	mov    (%rax),%r9
    6338:	48 8b 85 98 d8 ff ff 	mov    -0x2768(%rbp),%rax
    633f:	48 83 e8 30          	sub    $0x30,%rax
    6343:	4c 8b 00             	mov    (%rax),%r8
    6346:	48 8b 85 98 d8 ff ff 	mov    -0x2768(%rbp),%rax
    634d:	48 83 e8 60          	sub    $0x60,%rax
    6351:	48 8b 08             	mov    (%rax),%rcx
    6354:	48 8b 85 98 d8 ff ff 	mov    -0x2768(%rbp),%rax
    635b:	48 2d 90 00 00 00    	sub    $0x90,%rax
    6361:	48 8b 50 10          	mov    0x10(%rax),%rdx
    6365:	48 8b 85 98 d8 ff ff 	mov    -0x2768(%rbp),%rax
    636c:	48 2d 90 00 00 00    	sub    $0x90,%rax
    6372:	48 8b 70 08          	mov    0x8(%rax),%rsi
    6376:	48 8b 85 98 d8 ff ff 	mov    -0x2768(%rbp),%rax
    637d:	48 2d 90 00 00 00    	sub    $0x90,%rax
    6383:	8b 40 18             	mov    0x18(%rax),%eax
    6386:	48 83 ec 08          	sub    $0x8,%rsp
    638a:	57                   	push   %rdi
    638b:	89 c7                	mov    %eax,%edi
    638d:	e8 82 32 00 00       	call   9614 <mk_procedure>
    6392:	48 83 c4 10          	add    $0x10,%rsp
    6396:	48 89 85 f0 d8 ff ff 	mov    %rax,-0x2710(%rbp)
    639d:	e9 fb 0a 00 00       	jmp    6e9d <yyparse+0x172f>
    63a2:	48 8b 85 98 d8 ff ff 	mov    -0x2768(%rbp),%rax
    63a9:	48 2d 90 00 00 00    	sub    $0x90,%rax
    63af:	44 8b 48 28          	mov    0x28(%rax),%r9d
    63b3:	48 8b 85 98 d8 ff ff 	mov    -0x2768(%rbp),%rax
    63ba:	48 2d 90 00 00 00    	sub    $0x90,%rax
    63c0:	4c 8b 40 20          	mov    0x20(%rax),%r8
    63c4:	48 8b 85 98 d8 ff ff 	mov    -0x2768(%rbp),%rax
    63cb:	48 2d 90 00 00 00    	sub    $0x90,%rax
    63d1:	8b 78 1c             	mov    0x1c(%rax),%edi
    63d4:	48 8b 85 98 d8 ff ff 	mov    -0x2768(%rbp),%rax
    63db:	4c 8b 18             	mov    (%rax),%r11
    63de:	48 8b 85 98 d8 ff ff 	mov    -0x2768(%rbp),%rax
    63e5:	48 83 e8 30          	sub    $0x30,%rax
    63e9:	4c 8b 10             	mov    (%rax),%r10
    63ec:	48 8b 85 98 d8 ff ff 	mov    -0x2768(%rbp),%rax
    63f3:	48 83 e8 60          	sub    $0x60,%rax
    63f7:	48 8b 08             	mov    (%rax),%rcx
    63fa:	48 8b 85 98 d8 ff ff 	mov    -0x2768(%rbp),%rax
    6401:	48 2d 90 00 00 00    	sub    $0x90,%rax
    6407:	48 8b 50 10          	mov    0x10(%rax),%rdx
    640b:	48 8b 85 98 d8 ff ff 	mov    -0x2768(%rbp),%rax
    6412:	48 2d 90 00 00 00    	sub    $0x90,%rax
    6418:	48 8b 70 08          	mov    0x8(%rax),%rsi
    641c:	48 8b 85 98 d8 ff ff 	mov    -0x2768(%rbp),%rax
    6423:	48 2d 90 00 00 00    	sub    $0x90,%rax
    6429:	8b 40 18             	mov    0x18(%rax),%eax
    642c:	48 83 ec 08          	sub    $0x8,%rsp
    6430:	41 51                	push   %r9
    6432:	41 50                	push   %r8
    6434:	57                   	push   %rdi
    6435:	4d 89 d9             	mov    %r11,%r9
    6438:	4d 89 d0             	mov    %r10,%r8
    643b:	89 c7                	mov    %eax,%edi
    643d:	e8 79 32 00 00       	call   96bb <mk_function>
    6442:	48 83 c4 20          	add    $0x20,%rsp
    6446:	48 89 85 f0 d8 ff ff 	mov    %rax,-0x2710(%rbp)
    644d:	e9 4b 0a 00 00       	jmp    6e9d <yyparse+0x172f>
    6452:	c7 85 f0 d8 ff ff 05 	movl   $0x105,-0x2710(%rbp)
    6459:	01 00 00
    645c:	48 8b 85 98 d8 ff ff 	mov    -0x2768(%rbp),%rax
    6463:	48 2d c0 00 00 00    	sub    $0xc0,%rax
    6469:	48 8b 00             	mov    (%rax),%rax
    646c:	48 89 85 00 d9 ff ff 	mov    %rax,-0x2700(%rbp)
    6473:	48 8b 85 98 d8 ff ff 	mov    -0x2768(%rbp),%rax
    647a:	48 83 e8 60          	sub    $0x60,%rax
    647e:	8b 00                	mov    (%rax),%eax
    6480:	3d 0f 01 00 00       	cmp    $0x10f,%eax
    6485:	75 22                	jne    64a9 <yyparse+0xd3b>
    6487:	c7 85 0c d9 ff ff ff 	movl   $0xffffffff,-0x26f4(%rbp)
    648e:	ff ff ff
    6491:	48 8b 85 98 d8 ff ff 	mov    -0x2768(%rbp),%rax
    6498:	48 83 e8 60          	sub    $0x60,%rax
    649c:	48 8b 40 08          	mov    0x8(%rax),%rax
    64a0:	48 89 85 10 d9 ff ff 	mov    %rax,-0x26f0(%rbp)
    64a7:	eb 1f                	jmp    64c8 <yyparse+0xd5a>
    64a9:	48 8b 85 98 d8 ff ff 	mov    -0x2768(%rbp),%rax
    64b0:	48 83 e8 60          	sub    $0x60,%rax
    64b4:	8b 40 04             	mov    0x4(%rax),%eax
    64b7:	89 85 0c d9 ff ff    	mov    %eax,-0x26f4(%rbp)
    64bd:	48 c7 85 10 d9 ff ff 	movq   $0x0,-0x26f0(%rbp)
    64c4:	00 00 00 00
    64c8:	48 8b 85 98 d8 ff ff 	mov    -0x2768(%rbp),%rax
    64cf:	48 2d f0 00 00 00    	sub    $0xf0,%rax
    64d5:	48 8b 00             	mov    (%rax),%rax
    64d8:	48 89 85 f8 d8 ff ff 	mov    %rax,-0x2708(%rbp)
    64df:	48 8b 85 98 d8 ff ff 	mov    -0x2768(%rbp),%rax
    64e6:	48 2d f0 00 00 00    	sub    $0xf0,%rax
    64ec:	8b 40 08             	mov    0x8(%rax),%eax
    64ef:	89 85 08 d9 ff ff    	mov    %eax,-0x26f8(%rbp)
    64f5:	48 8b 85 98 d8 ff ff 	mov    -0x2768(%rbp),%rax
    64fc:	8b 00                	mov    (%rax),%eax
    64fe:	89 85 18 d9 ff ff    	mov    %eax,-0x26e8(%rbp)
    6504:	e9 94 09 00 00       	jmp    6e9d <yyparse+0x172f>
    6509:	c7 85 f0 d8 ff ff 04 	movl   $0x104,-0x2710(%rbp)
    6510:	01 00 00
    6513:	48 8b 85 98 d8 ff ff 	mov    -0x2768(%rbp),%rax
    651a:	48 83 e8 60          	sub    $0x60,%rax
    651e:	48 8b 00             	mov    (%rax),%rax
    6521:	48 89 85 00 d9 ff ff 	mov    %rax,-0x2700(%rbp)
    6528:	c7 85 0c d9 ff ff ff 	movl   $0xffffffff,-0x26f4(%rbp)
    652f:	ff ff ff
    6532:	48 c7 85 10 d9 ff ff 	movq   $0x0,-0x26f0(%rbp)
    6539:	00 00 00 00
    653d:	48 8b 85 98 d8 ff ff 	mov    -0x2768(%rbp),%rax
    6544:	48 2d 90 00 00 00    	sub    $0x90,%rax
    654a:	48 8b 00             	mov    (%rax),%rax
    654d:	48 89 85 f8 d8 ff ff 	mov    %rax,-0x2708(%rbp)
    6554:	48 8b 85 98 d8 ff ff 	mov    -0x2768(%rbp),%rax
    655b:	48 2d 90 00 00 00    	sub    $0x90,%rax
    6561:	8b 40 08             	mov    0x8(%rax),%eax
    6564:	89 85 08 d9 ff ff    	mov    %eax,-0x26f8(%rbp)
    656a:	48 8b 85 98 d8 ff ff 	mov    -0x2768(%rbp),%rax
    6571:	8b 00                	mov    (%rax),%eax
    6573:	89 85 18 d9 ff ff    	mov    %eax,-0x26e8(%rbp)
    6579:	e9 1f 09 00 00       	jmp    6e9d <yyparse+0x172f>
    657e:	c7 85 f0 d8 ff ff 01 	movl   $0x1,-0x2710(%rbp)
    6585:	00 00 00
    6588:	e9 10 09 00 00       	jmp    6e9d <yyparse+0x172f>
    658d:	c7 85 f0 d8 ff ff 00 	movl   $0x0,-0x2710(%rbp)
    6594:	00 00 00
    6597:	e9 01 09 00 00       	jmp    6e9d <yyparse+0x172f>
    659c:	48 8b 85 98 d8 ff ff 	mov    -0x2768(%rbp),%rax
    65a3:	48 83 e8 30          	sub    $0x30,%rax
    65a7:	48 8b 00             	mov    (%rax),%rax
    65aa:	48 89 85 f0 d8 ff ff 	mov    %rax,-0x2710(%rbp)
    65b1:	e9 e7 08 00 00       	jmp    6e9d <yyparse+0x172f>
    65b6:	48 c7 85 f0 d8 ff ff 	movq   $0x0,-0x2710(%rbp)
    65bd:	00 00 00 00
    65c1:	e9 d7 08 00 00       	jmp    6e9d <yyparse+0x172f>
    65c6:	48 8b 85 98 d8 ff ff 	mov    -0x2768(%rbp),%rax
    65cd:	48 8b 00             	mov    (%rax),%rax
    65d0:	be 00 00 00 00       	mov    $0x0,%esi
    65d5:	48 89 c7             	mov    %rax,%rdi
    65d8:	e8 6a 14 00 00       	call   7a47 <CreateListNode>
    65dd:	48 89 c2             	mov    %rax,%rdx
    65e0:	48 8b 85 98 d8 ff ff 	mov    -0x2768(%rbp),%rax
    65e7:	48 83 e8 60          	sub    $0x60,%rax
    65eb:	48 8b 00             	mov    (%rax),%rax
    65ee:	48 89 d6             	mov    %rdx,%rsi
    65f1:	48 89 c7             	mov    %rax,%rdi
    65f4:	e8 1a 15 00 00       	call   7b13 <PushListNodeBack>
    65f9:	48 89 85 f0 d8 ff ff 	mov    %rax,-0x2710(%rbp)
    6600:	e9 98 08 00 00       	jmp    6e9d <yyparse+0x172f>
    6605:	48 8b 85 98 d8 ff ff 	mov    -0x2768(%rbp),%rax
    660c:	48 8b 00             	mov    (%rax),%rax
    660f:	be 00 00 00 00       	mov    $0x0,%esi
    6614:	48 89 c7             	mov    %rax,%rdi
    6617:	e8 2b 14 00 00       	call   7a47 <CreateListNode>
    661c:	48 89 85 f0 d8 ff ff 	mov    %rax,-0x2710(%rbp)
    6623:	e9 75 08 00 00       	jmp    6e9d <yyparse+0x172f>
    6628:	48 8b 85 98 d8 ff ff 	mov    -0x2768(%rbp),%rax
    662f:	8b 00                	mov    (%rax),%eax
    6631:	3d 11 01 00 00       	cmp    $0x111,%eax
    6636:	75 4d                	jne    6685 <yyparse+0xf17>
    6638:	48 8b 85 98 d8 ff ff 	mov    -0x2768(%rbp),%rax
    663f:	8b 78 14             	mov    0x14(%rax),%edi
    6642:	48 8b 85 98 d8 ff ff 	mov    -0x2768(%rbp),%rax
    6649:	8b 48 10             	mov    0x10(%rax),%ecx
    664c:	48 8b 85 98 d8 ff ff 	mov    -0x2768(%rbp),%rax
    6653:	8b 50 04             	mov    0x4(%rax),%edx
    6656:	48 8b 85 98 d8 ff ff 	mov    -0x2768(%rbp),%rax
    665d:	48 83 e8 60          	sub    $0x60,%rax
    6661:	48 8b 30             	mov    (%rax),%rsi
    6664:	48 8b 85 98 d8 ff ff 	mov    -0x2768(%rbp),%rax
    666b:	48 83 e8 60          	sub    $0x60,%rax
    666f:	8b 40 08             	mov    0x8(%rax),%eax
    6672:	41 89 f8             	mov    %edi,%r8d
    6675:	89 c7                	mov    %eax,%edi
    6677:	e8 55 31 00 00       	call   97d1 <mk_arraydecl>
    667c:	48 89 85 a8 d8 ff ff 	mov    %rax,-0x2758(%rbp)
    6683:	eb 3f                	jmp    66c4 <yyparse+0xf56>
    6685:	48 8b 85 98 d8 ff ff 	mov    -0x2768(%rbp),%rax
    668c:	48 8b 48 08          	mov    0x8(%rax),%rcx
    6690:	48 8b 85 98 d8 ff ff 	mov    -0x2768(%rbp),%rax
    6697:	8b 50 04             	mov    0x4(%rax),%edx
    669a:	48 8b 85 98 d8 ff ff 	mov    -0x2768(%rbp),%rax
    66a1:	48 83 e8 60          	sub    $0x60,%rax
    66a5:	48 8b 30             	mov    (%rax),%rsi
    66a8:	48 8b 85 98 d8 ff ff 	mov    -0x2768(%rbp),%rax
    66af:	48 83 e8 60          	sub    $0x60,%rax
    66b3:	8b 40 08             	mov    0x8(%rax),%eax
    66b6:	89 c7                	mov    %eax,%edi
    66b8:	e8 b0 30 00 00       	call   976d <mk_vardecl>
    66bd:	48 89 85 a8 d8 ff ff 	mov    %rax,-0x2758(%rbp)
    66c4:	48 8b 85 a8 d8 ff ff 	mov    -0x2758(%rbp),%rax
    66cb:	48 89 85 f0 d8 ff ff 	mov    %rax,-0x2710(%rbp)
    66d2:	e9 c6 07 00 00       	jmp    6e9d <yyparse+0x172f>
    66d7:	48 8b 85 98 d8 ff ff 	mov    -0x2768(%rbp),%rax
    66de:	48 83 e8 30          	sub    $0x30,%rax
    66e2:	48 8b 10             	mov    (%rax),%rdx
    66e5:	8b 05 29 a9 01 00    	mov    0x1a929(%rip),%eax        # 21014 <line_num>
    66eb:	48 89 d6             	mov    %rdx,%rsi
    66ee:	89 c7                	mov    %eax,%edi
    66f0:	e8 f9 31 00 00       	call   98ee <mk_compoundstatement>
    66f5:	48 89 85 f0 d8 ff ff 	mov    %rax,-0x2710(%rbp)
    66fc:	e9 9c 07 00 00       	jmp    6e9d <yyparse+0x172f>
    6701:	48 8b 85 98 d8 ff ff 	mov    -0x2768(%rbp),%rax
    6708:	48 8b 10             	mov    (%rax),%rdx
    670b:	8b 05 03 a9 01 00    	mov    0x1a903(%rip),%eax        # 21014 <line_num>
    6711:	48 89 d6             	mov    %rdx,%rsi
    6714:	89 c7                	mov    %eax,%edi
    6716:	e8 bc 33 00 00       	call   9ad7 <mk_asmblock>
    671b:	48 89 85 f0 d8 ff ff 	mov    %rax,-0x2710(%rbp)
    6722:	e9 76 07 00 00       	jmp    6e9d <yyparse+0x172f>
    6727:	48 c7 85 f0 d8 ff ff 	movq   $0x0,-0x2710(%rbp)
    672e:	00 00 00 00
    6732:	e9 66 07 00 00       	jmp    6e9d <yyparse+0x172f>
    6737:	48 8b 85 98 d8 ff ff 	mov    -0x2768(%rbp),%rax
    673e:	48 8b 00             	mov    (%rax),%rax
    6741:	48 89 85 f0 d8 ff ff 	mov    %rax,-0x2710(%rbp)
    6748:	e9 50 07 00 00       	jmp    6e9d <yyparse+0x172f>
    674d:	48 8b 85 98 d8 ff ff 	mov    -0x2768(%rbp),%rax
    6754:	48 83 e8 30          	sub    $0x30,%rax
    6758:	48 8b 00             	mov    (%rax),%rax
    675b:	48 89 85 f0 d8 ff ff 	mov    %rax,-0x2710(%rbp)
    6762:	e9 36 07 00 00       	jmp    6e9d <yyparse+0x172f>
    6767:	48 8b 85 98 d8 ff ff 	mov    -0x2768(%rbp),%rax
    676e:	48 8b 00             	mov    (%rax),%rax
    6771:	be 01 00 00 00       	mov    $0x1,%esi
    6776:	48 89 c7             	mov    %rax,%rdi
    6779:	e8 c9 12 00 00       	call   7a47 <CreateListNode>
    677e:	48 89 85 f0 d8 ff ff 	mov    %rax,-0x2710(%rbp)
    6785:	e9 13 07 00 00       	jmp    6e9d <yyparse+0x172f>
    678a:	48 8b 85 98 d8 ff ff 	mov    -0x2768(%rbp),%rax
    6791:	48 8b 00             	mov    (%rax),%rax
    6794:	be 01 00 00 00       	mov    $0x1,%esi
    6799:	48 89 c7             	mov    %rax,%rdi
    679c:	e8 a6 12 00 00       	call   7a47 <CreateListNode>
    67a1:	48 89 c2             	mov    %rax,%rdx
    67a4:	48 8b 85 98 d8 ff ff 	mov    -0x2768(%rbp),%rax
    67ab:	48 83 e8 60          	sub    $0x60,%rax
    67af:	48 8b 00             	mov    (%rax),%rax
    67b2:	48 89 d6             	mov    %rdx,%rsi
    67b5:	48 89 c7             	mov    %rax,%rdi
    67b8:	e8 56 13 00 00       	call   7b13 <PushListNodeBack>
    67bd:	48 89 85 f0 d8 ff ff 	mov    %rax,-0x2710(%rbp)
    67c4:	e9 d4 06 00 00       	jmp    6e9d <yyparse+0x172f>
    67c9:	48 8b 85 98 d8 ff ff 	mov    -0x2768(%rbp),%rax
    67d0:	48 8b 00             	mov    (%rax),%rax
    67d3:	48 89 85 f0 d8 ff ff 	mov    %rax,-0x2710(%rbp)
    67da:	e9 be 06 00 00       	jmp    6e9d <yyparse+0x172f>
    67df:	48 8b 85 98 d8 ff ff 	mov    -0x2768(%rbp),%rax
    67e6:	48 8b 00             	mov    (%rax),%rax
    67e9:	48 89 85 f0 d8 ff ff 	mov    %rax,-0x2710(%rbp)
    67f0:	e9 a8 06 00 00       	jmp    6e9d <yyparse+0x172f>
    67f5:	48 8b 85 98 d8 ff ff 	mov    -0x2768(%rbp),%rax
    67fc:	48 8b 00             	mov    (%rax),%rax
    67ff:	48 89 85 f0 d8 ff ff 	mov    %rax,-0x2710(%rbp)
    6806:	e9 92 06 00 00       	jmp    6e9d <yyparse+0x172f>
